
sha3-rocc.riscv:     file format elf32-littleriscv


Disassembly of section .text.init:

80000000 <_start>:
80000000:	4081                	li	ra,0
80000002:	4101                	li	sp,0
80000004:	4181                	li	gp,0
80000006:	4201                	li	tp,0
80000008:	4281                	li	t0,0
8000000a:	4301                	li	t1,0
8000000c:	4381                	li	t2,0
8000000e:	4401                	li	s0,0
80000010:	4481                	li	s1,0
80000012:	4501                	li	a0,0
80000014:	4581                	li	a1,0
80000016:	4601                	li	a2,0
80000018:	4681                	li	a3,0
8000001a:	4701                	li	a4,0
8000001c:	4781                	li	a5,0
8000001e:	4801                	li	a6,0
80000020:	4881                	li	a7,0
80000022:	4901                	li	s2,0
80000024:	4981                	li	s3,0
80000026:	4a01                	li	s4,0
80000028:	4a81                	li	s5,0
8000002a:	4b01                	li	s6,0
8000002c:	4b81                	li	s7,0
8000002e:	4c01                	li	s8,0
80000030:	4c81                	li	s9,0
80000032:	4d01                	li	s10,0
80000034:	4d81                	li	s11,0
80000036:	4e01                	li	t3,0
80000038:	4e81                	li	t4,0
8000003a:	4f01                	li	t5,0
8000003c:	4f81                	li	t6,0
8000003e:	62f9                	lui	t0,0x1e
80000040:	3002a073          	csrs	mstatus,t0
80000044:	4285                	li	t0,1
80000046:	02fe                	sll	t0,t0,0x1f
80000048:	0002c863          	bltz	t0,80000058 <_start+0x58>
8000004c:	4505                	li	a0,1
8000004e:	00001297          	auipc	t0,0x1
80000052:	faa2a923          	sw	a0,-78(t0) # 80001000 <tohost>
80000056:	bfdd                	j	8000004c <_start+0x4c>
80000058:	00000297          	auipc	t0,0x0
8000005c:	09028293          	add	t0,t0,144 # 800000e8 <_start+0xe8>
80000060:	30529073          	csrw	mtvec,t0
80000064:	00301073          	fscsr	zero
80000068:	f0000053          	fmv.w.x	ft0,zero
8000006c:	f00000d3          	fmv.w.x	ft1,zero
80000070:	f0000153          	fmv.w.x	ft2,zero
80000074:	f00001d3          	fmv.w.x	ft3,zero
80000078:	f0000253          	fmv.w.x	ft4,zero
8000007c:	f00002d3          	fmv.w.x	ft5,zero
80000080:	f0000353          	fmv.w.x	ft6,zero
80000084:	f00003d3          	fmv.w.x	ft7,zero
80000088:	f0000453          	fmv.w.x	fs0,zero
8000008c:	f00004d3          	fmv.w.x	fs1,zero
80000090:	f0000553          	fmv.w.x	fa0,zero
80000094:	f00005d3          	fmv.w.x	fa1,zero
80000098:	f0000653          	fmv.w.x	fa2,zero
8000009c:	f00006d3          	fmv.w.x	fa3,zero
800000a0:	f0000753          	fmv.w.x	fa4,zero
800000a4:	f00007d3          	fmv.w.x	fa5,zero
800000a8:	f0000853          	fmv.w.x	fa6,zero
800000ac:	f00008d3          	fmv.w.x	fa7,zero
800000b0:	f0000953          	fmv.w.x	fs2,zero
800000b4:	f00009d3          	fmv.w.x	fs3,zero
800000b8:	f0000a53          	fmv.w.x	fs4,zero
800000bc:	f0000ad3          	fmv.w.x	fs5,zero
800000c0:	f0000b53          	fmv.w.x	fs6,zero
800000c4:	f0000bd3          	fmv.w.x	fs7,zero
800000c8:	f0000c53          	fmv.w.x	fs8,zero
800000cc:	f0000cd3          	fmv.w.x	fs9,zero
800000d0:	f0000d53          	fmv.w.x	fs10,zero
800000d4:	f0000dd3          	fmv.w.x	fs11,zero
800000d8:	f0000e53          	fmv.w.x	ft8,zero
800000dc:	f0000ed3          	fmv.w.x	ft9,zero
800000e0:	f0000f53          	fmv.w.x	ft10,zero
800000e4:	f0000fd3          	fmv.w.x	ft11,zero
800000e8:	00000297          	auipc	t0,0x0
800000ec:	03828293          	add	t0,t0,56 # 80000120 <trap_entry>
800000f0:	30529073          	csrw	mtvec,t0
800000f4:	00005197          	auipc	gp,0x5
800000f8:	c4018193          	add	gp,gp,-960 # 80004d34 <__global_pointer$>
800000fc:	94b18213          	add	tp,gp,-1717 # 8000467f <_end+0x3f>
80000100:	fc027213          	and	tp,tp,-64
80000104:	f1402573          	csrr	a0,mhartid
80000108:	4585                	li	a1,1
8000010a:	00b57063          	bgeu	a0,a1,8000010a <_start+0x10a>
8000010e:	01151613          	sll	a2,a0,0x11
80000112:	9232                	add	tp,tp,a2
80000114:	00150113          	add	sp,a0,1
80000118:	0146                	sll	sp,sp,0x11
8000011a:	9112                	add	sp,sp,tp
8000011c:	2e10106f          	j	80001bfc <_init>

80000120 <trap_entry>:
80000120:	716d                	add	sp,sp,-272
80000122:	c206                	sw	ra,4(sp)
80000124:	c40a                	sw	sp,8(sp)
80000126:	c60e                	sw	gp,12(sp)
80000128:	c812                	sw	tp,16(sp)
8000012a:	ca16                	sw	t0,20(sp)
8000012c:	cc1a                	sw	t1,24(sp)
8000012e:	ce1e                	sw	t2,28(sp)
80000130:	d022                	sw	s0,32(sp)
80000132:	d226                	sw	s1,36(sp)
80000134:	d42a                	sw	a0,40(sp)
80000136:	d62e                	sw	a1,44(sp)
80000138:	d832                	sw	a2,48(sp)
8000013a:	da36                	sw	a3,52(sp)
8000013c:	dc3a                	sw	a4,56(sp)
8000013e:	de3e                	sw	a5,60(sp)
80000140:	c0c2                	sw	a6,64(sp)
80000142:	c2c6                	sw	a7,68(sp)
80000144:	c4ca                	sw	s2,72(sp)
80000146:	c6ce                	sw	s3,76(sp)
80000148:	c8d2                	sw	s4,80(sp)
8000014a:	cad6                	sw	s5,84(sp)
8000014c:	ccda                	sw	s6,88(sp)
8000014e:	cede                	sw	s7,92(sp)
80000150:	d0e2                	sw	s8,96(sp)
80000152:	d2e6                	sw	s9,100(sp)
80000154:	d4ea                	sw	s10,104(sp)
80000156:	d6ee                	sw	s11,108(sp)
80000158:	d8f2                	sw	t3,112(sp)
8000015a:	daf6                	sw	t4,116(sp)
8000015c:	dcfa                	sw	t5,120(sp)
8000015e:	defe                	sw	t6,124(sp)
80000160:	34202573          	csrr	a0,mcause
80000164:	341025f3          	csrr	a1,mepc
80000168:	860a                	mv	a2,sp
8000016a:	099010ef          	jal	80001a02 <handle_trap>
8000016e:	34151073          	csrw	mepc,a0
80000172:	6289                	lui	t0,0x2
80000174:	80028293          	add	t0,t0,-2048 # 1800 <_tbss_end+0x17bc>
80000178:	3002a073          	csrs	mstatus,t0
8000017c:	4092                	lw	ra,4(sp)
8000017e:	4122                	lw	sp,8(sp)
80000180:	41b2                	lw	gp,12(sp)
80000182:	4242                	lw	tp,16(sp)
80000184:	42d2                	lw	t0,20(sp)
80000186:	4362                	lw	t1,24(sp)
80000188:	43f2                	lw	t2,28(sp)
8000018a:	5402                	lw	s0,32(sp)
8000018c:	5492                	lw	s1,36(sp)
8000018e:	5522                	lw	a0,40(sp)
80000190:	55b2                	lw	a1,44(sp)
80000192:	5642                	lw	a2,48(sp)
80000194:	56d2                	lw	a3,52(sp)
80000196:	5762                	lw	a4,56(sp)
80000198:	57f2                	lw	a5,60(sp)
8000019a:	4806                	lw	a6,64(sp)
8000019c:	4896                	lw	a7,68(sp)
8000019e:	4926                	lw	s2,72(sp)
800001a0:	49b6                	lw	s3,76(sp)
800001a2:	4a46                	lw	s4,80(sp)
800001a4:	4ad6                	lw	s5,84(sp)
800001a6:	4b66                	lw	s6,88(sp)
800001a8:	4bf6                	lw	s7,92(sp)
800001aa:	5c06                	lw	s8,96(sp)
800001ac:	5c96                	lw	s9,100(sp)
800001ae:	5d26                	lw	s10,104(sp)
800001b0:	5db6                	lw	s11,108(sp)
800001b2:	5e46                	lw	t3,112(sp)
800001b4:	5ed6                	lw	t4,116(sp)
800001b6:	5f66                	lw	t5,120(sp)
800001b8:	5ff6                	lw	t6,124(sp)
800001ba:	6151                	add	sp,sp,272
800001bc:	30200073          	mret
	...

Disassembly of section .text:

80001048 <keccakf.constprop.0>:
80001048:	711d                	add	sp,sp,-96
8000104a:	cea2                	sw	s0,92(sp)
8000104c:	cca6                	sw	s1,88(sp)
8000104e:	caca                	sw	s2,84(sp)
80001050:	c8ce                	sw	s3,80(sp)
80001052:	c6d2                	sw	s4,76(sp)
80001054:	c4d6                	sw	s5,72(sp)
80001056:	c2da                	sw	s6,68(sp)
80001058:	c0de                	sw	s7,64(sp)
8000105a:	de62                	sw	s8,60(sp)
8000105c:	00003f17          	auipc	t5,0x3
80001060:	fa4f0f13          	add	t5,t5,-92 # 80004000 <keccakf_rndc>
80001064:	00003f97          	auipc	t6,0x3
80001068:	05cf8f93          	add	t6,t6,92 # 800040c0 <keccakf_piln>
8000106c:	0c850293          	add	t0,a0,200
80001070:	00003897          	auipc	a7,0x3
80001074:	0b088893          	add	a7,a7,176 # 80004120 <keccakf_rotc>
80001078:	02850e93          	add	t4,a0,40
8000107c:	4615                	li	a2,5
8000107e:	45fd                	li	a1,31
80001080:	03010813          	add	a6,sp,48
80001084:	4e65                	li	t3,25
80001086:	832a                	mv	t1,a0
80001088:	0038                	add	a4,sp,8
8000108a:	87aa                	mv	a5,a0
8000108c:	0007aa83          	lw	s5,0(a5)
80001090:	0287ab83          	lw	s7,40(a5)
80001094:	0047aa03          	lw	s4,4(a5)
80001098:	02c7ab03          	lw	s6,44(a5)
8000109c:	0507a983          	lw	s3,80(a5)
800010a0:	0547a903          	lw	s2,84(a5)
800010a4:	5fa4                	lw	s1,120(a5)
800010a6:	5fe0                	lw	s0,124(a5)
800010a8:	0a07a383          	lw	t2,160(a5)
800010ac:	0a47a683          	lw	a3,164(a5)
800010b0:	017acab3          	xor	s5,s5,s7
800010b4:	016a4a33          	xor	s4,s4,s6
800010b8:	0159c9b3          	xor	s3,s3,s5
800010bc:	01494933          	xor	s2,s2,s4
800010c0:	0134c4b3          	xor	s1,s1,s3
800010c4:	01244433          	xor	s0,s0,s2
800010c8:	0093c3b3          	xor	t2,t2,s1
800010cc:	8ea1                	xor	a3,a3,s0
800010ce:	00772023          	sw	t2,0(a4)
800010d2:	c354                	sw	a3,4(a4)
800010d4:	07a1                	add	a5,a5,8
800010d6:	0721                	add	a4,a4,8
800010d8:	fafe9ae3          	bne	t4,a5,8000108c <keccakf.constprop.0+0x44>
800010dc:	8496                	mv	s1,t0
800010de:	4901                	li	s2,0
800010e0:	00490713          	add	a4,s2,4
800010e4:	0905                	add	s2,s2,1
800010e6:	02c966b3          	rem	a3,s2,a2
800010ea:	f3848793          	add	a5,s1,-200
800010ee:	02c76733          	rem	a4,a4,a2
800010f2:	068e                	sll	a3,a3,0x3
800010f4:	03068693          	add	a3,a3,48
800010f8:	968a                	add	a3,a3,sp
800010fa:	fd86a983          	lw	s3,-40(a3)
800010fe:	fdc6a383          	lw	t2,-36(a3)
80001102:	01f9d413          	srl	s0,s3,0x1f
80001106:	00139693          	sll	a3,t2,0x1
8000110a:	8c55                	or	s0,s0,a3
8000110c:	01f3d393          	srl	t2,t2,0x1f
80001110:	0986                	sll	s3,s3,0x1
80001112:	0133e3b3          	or	t2,t2,s3
80001116:	070e                	sll	a4,a4,0x3
80001118:	03070713          	add	a4,a4,48
8000111c:	970a                	add	a4,a4,sp
8000111e:	fd872683          	lw	a3,-40(a4)
80001122:	fdc72703          	lw	a4,-36(a4)
80001126:	00d3c3b3          	xor	t2,t2,a3
8000112a:	8c39                	xor	s0,s0,a4
8000112c:	4394                	lw	a3,0(a5)
8000112e:	43d8                	lw	a4,4(a5)
80001130:	02878793          	add	a5,a5,40
80001134:	0076c6b3          	xor	a3,a3,t2
80001138:	8f21                	xor	a4,a4,s0
8000113a:	fcd7ac23          	sw	a3,-40(a5)
8000113e:	fce7ae23          	sw	a4,-36(a5)
80001142:	fef495e3          	bne	s1,a5,8000112c <keccakf.constprop.0+0xe4>
80001146:	04a1                	add	s1,s1,8
80001148:	f8c91ce3          	bne	s2,a2,800010e0 <keccakf.constprop.0+0x98>
8000114c:	00852a83          	lw	s5,8(a0)
80001150:	00c52a03          	lw	s4,12(a0)
80001154:	00003917          	auipc	s2,0x3
80001158:	f6c90913          	add	s2,s2,-148 # 800040c0 <keccakf_piln>
8000115c:	00003997          	auipc	s3,0x3
80001160:	fc498993          	add	s3,s3,-60 # 80004120 <keccakf_rotc>
80001164:	a091                	j	800011a8 <keccakf.constprop.0+0x160>
80001166:	40f007b3          	neg	a5,a5
8000116a:	03f7f793          	and	a5,a5,63
8000116e:	00139493          	sll	s1,t2,0x1
80001172:	40f58c33          	sub	s8,a1,a5
80001176:	fe078b93          	add	s7,a5,-32
8000117a:	01669433          	sll	s0,a3,s6
8000117e:	018494b3          	sll	s1,s1,s8
80001182:	4b01                	li	s6,0
80001184:	00f6d6b3          	srl	a3,a3,a5
80001188:	060bcb63          	bltz	s7,800011fe <keccakf.constprop.0+0x1b6>
8000118c:	0173d6b3          	srl	a3,t2,s7
80001190:	4381                	li	t2,0
80001192:	00db6b33          	or	s6,s6,a3
80001196:	00746433          	or	s0,s0,t2
8000119a:	01672023          	sw	s6,0(a4)
8000119e:	c340                	sw	s0,4(a4)
800011a0:	0911                	add	s2,s2,4
800011a2:	0991                	add	s3,s3,4
800011a4:	07288b63          	beq	a7,s2,8000121a <keccakf.constprop.0+0x1d2>
800011a8:	00092703          	lw	a4,0(s2)
800011ac:	0009a783          	lw	a5,0(s3)
800011b0:	001ad393          	srl	t2,s5,0x1
800011b4:	070e                	sll	a4,a4,0x3
800011b6:	40f58433          	sub	s0,a1,a5
800011ba:	972a                	add	a4,a4,a0
800011bc:	fe078b13          	add	s6,a5,-32
800011c0:	0083d4b3          	srl	s1,t2,s0
800011c4:	86d6                	mv	a3,s5
800011c6:	83d2                	mv	t2,s4
800011c8:	00fa1433          	sll	s0,s4,a5
800011cc:	00072a83          	lw	s5,0(a4)
800011d0:	00472a03          	lw	s4,4(a4)
800011d4:	f80b59e3          	bgez	s6,80001166 <keccakf.constprop.0+0x11e>
800011d8:	00f69b33          	sll	s6,a3,a5
800011dc:	40f007b3          	neg	a5,a5
800011e0:	03f7f793          	and	a5,a5,63
800011e4:	8c45                	or	s0,s0,s1
800011e6:	40f58c33          	sub	s8,a1,a5
800011ea:	00139493          	sll	s1,t2,0x1
800011ee:	fe078b93          	add	s7,a5,-32
800011f2:	018494b3          	sll	s1,s1,s8
800011f6:	00f6d6b3          	srl	a3,a3,a5
800011fa:	f80bd9e3          	bgez	s7,8000118c <keccakf.constprop.0+0x144>
800011fe:	8ec5                	or	a3,a3,s1
80001200:	00f3d3b3          	srl	t2,t2,a5
80001204:	00db6b33          	or	s6,s6,a3
80001208:	00746433          	or	s0,s0,t2
8000120c:	01672023          	sw	s6,0(a4)
80001210:	c340                	sw	s0,4(a4)
80001212:	0911                	add	s2,s2,4
80001214:	0991                	add	s3,s3,4
80001216:	f92899e3          	bne	a7,s2,800011a8 <keccakf.constprop.0+0x160>
8000121a:	c456                	sw	s5,8(sp)
8000121c:	c652                	sw	s4,12(sp)
8000121e:	4901                	li	s2,0
80001220:	003c                	add	a5,sp,8
80001222:	871a                	mv	a4,t1
80001224:	4300                	lw	s0,0(a4)
80001226:	4344                	lw	s1,4(a4)
80001228:	07a1                	add	a5,a5,8
8000122a:	fe87ac23          	sw	s0,-8(a5)
8000122e:	fe97ae23          	sw	s1,-4(a5)
80001232:	0721                	add	a4,a4,8
80001234:	fef818e3          	bne	a6,a5,80001224 <keccakf.constprop.0+0x1dc>
80001238:	869a                	mv	a3,t1
8000123a:	4381                	li	t2,0
8000123c:	879e                	mv	a5,t2
8000123e:	0385                	add	t2,t2,1
80001240:	02c3e733          	rem	a4,t2,a2
80001244:	0789                	add	a5,a5,2
80001246:	4284                	lw	s1,0(a3)
80001248:	42c0                	lw	s0,4(a3)
8000124a:	06a1                	add	a3,a3,8
8000124c:	02c7e7b3          	rem	a5,a5,a2
80001250:	070e                	sll	a4,a4,0x3
80001252:	03070713          	add	a4,a4,48
80001256:	970a                	add	a4,a4,sp
80001258:	fd872a03          	lw	s4,-40(a4)
8000125c:	fdc72983          	lw	s3,-36(a4)
80001260:	fffa4a13          	not	s4,s4
80001264:	fff9c993          	not	s3,s3
80001268:	078e                	sll	a5,a5,0x3
8000126a:	03078793          	add	a5,a5,48
8000126e:	978a                	add	a5,a5,sp
80001270:	fd87a703          	lw	a4,-40(a5)
80001274:	fdc7a783          	lw	a5,-36(a5)
80001278:	01477733          	and	a4,a4,s4
8000127c:	0137f7b3          	and	a5,a5,s3
80001280:	8f25                	xor	a4,a4,s1
80001282:	8fa1                	xor	a5,a5,s0
80001284:	fee6ac23          	sw	a4,-8(a3)
80001288:	fef6ae23          	sw	a5,-4(a3)
8000128c:	fac398e3          	bne	t2,a2,8000123c <keccakf.constprop.0+0x1f4>
80001290:	0915                	add	s2,s2,5
80001292:	02830313          	add	t1,t1,40
80001296:	f9c915e3          	bne	s2,t3,80001220 <keccakf.constprop.0+0x1d8>
8000129a:	000f2303          	lw	t1,0(t5)
8000129e:	004f2683          	lw	a3,4(t5)
800012a2:	4118                	lw	a4,0(a0)
800012a4:	415c                	lw	a5,4(a0)
800012a6:	0f21                	add	t5,t5,8
800012a8:	00674733          	xor	a4,a4,t1
800012ac:	8fb5                	xor	a5,a5,a3
800012ae:	c118                	sw	a4,0(a0)
800012b0:	c15c                	sw	a5,4(a0)
800012b2:	ddef9ae3          	bne	t6,t5,80001086 <keccakf.constprop.0+0x3e>
800012b6:	4476                	lw	s0,92(sp)
800012b8:	44e6                	lw	s1,88(sp)
800012ba:	4956                	lw	s2,84(sp)
800012bc:	49c6                	lw	s3,80(sp)
800012be:	4a36                	lw	s4,76(sp)
800012c0:	4aa6                	lw	s5,72(sp)
800012c2:	4b16                	lw	s6,68(sp)
800012c4:	4b86                	lw	s7,64(sp)
800012c6:	5c72                	lw	s8,60(sp)
800012c8:	6125                	add	sp,sp,96
800012ca:	8082                	ret

800012cc <hash_init_sha3>:
800012cc:	1141                	add	sp,sp,-16
800012ce:	16000613          	li	a2,352
800012d2:	4581                	li	a1,0
800012d4:	c422                	sw	s0,8(sp)
800012d6:	c606                	sw	ra,12(sp)
800012d8:	842a                	mv	s0,a0
800012da:	0df000ef          	jal	80001bb8 <memset>
800012de:	02000793          	li	a5,32
800012e2:	0cf42423          	sw	a5,200(s0)
800012e6:	08800793          	li	a5,136
800012ea:	0cf42623          	sw	a5,204(s0)
800012ee:	47c5                	li	a5,17
800012f0:	40b2                	lw	ra,12(sp)
800012f2:	0cf42823          	sw	a5,208(s0)
800012f6:	4422                	lw	s0,8(sp)
800012f8:	0141                	add	sp,sp,16
800012fa:	8082                	ret

800012fc <printState>:
800012fc:	1101                	add	sp,sp,-32
800012fe:	ca26                	sw	s1,20(sp)
80001300:	c84a                	sw	s2,16(sp)
80001302:	c64e                	sw	s3,12(sp)
80001304:	c452                	sw	s4,8(sp)
80001306:	c256                	sw	s5,4(sp)
80001308:	ce06                	sw	ra,28(sp)
8000130a:	cc22                	sw	s0,24(sp)
8000130c:	0c850493          	add	s1,a0,200
80001310:	4981                	li	s3,0
80001312:	00003917          	auipc	s2,0x3
80001316:	0e690913          	add	s2,s2,230 # 800043f8 <__clz_tab+0x100>
8000131a:	00003a97          	auipc	s5,0x3
8000131e:	0e6a8a93          	add	s5,s5,230 # 80004400 <__clz_tab+0x108>
80001322:	4a15                	li	s4,5
80001324:	f3848413          	add	s0,s1,-200
80001328:	4010                	lw	a2,0(s0)
8000132a:	4054                	lw	a3,4(s0)
8000132c:	854a                	mv	a0,s2
8000132e:	02840413          	add	s0,s0,40
80001332:	7d8000ef          	jal	80001b0a <printf>
80001336:	fe9419e3          	bne	s0,s1,80001328 <printState+0x2c>
8000133a:	8556                	mv	a0,s5
8000133c:	0985                	add	s3,s3,1
8000133e:	7cc000ef          	jal	80001b0a <printf>
80001342:	00840493          	add	s1,s0,8
80001346:	fd499fe3          	bne	s3,s4,80001324 <printState+0x28>
8000134a:	4462                	lw	s0,24(sp)
8000134c:	40f2                	lw	ra,28(sp)
8000134e:	44d2                	lw	s1,20(sp)
80001350:	4942                	lw	s2,16(sp)
80001352:	49b2                	lw	s3,12(sp)
80001354:	4a22                	lw	s4,8(sp)
80001356:	4a92                	lw	s5,4(sp)
80001358:	00003517          	auipc	a0,0x3
8000135c:	0a850513          	add	a0,a0,168 # 80004400 <__clz_tab+0x108>
80001360:	6105                	add	sp,sp,32
80001362:	7a80006f          	j	80001b0a <printf>

80001366 <sha3_init>:
80001366:	1141                	add	sp,sp,-16
80001368:	16000613          	li	a2,352
8000136c:	4581                	li	a1,0
8000136e:	c422                	sw	s0,8(sp)
80001370:	c606                	sw	ra,12(sp)
80001372:	842a                	mv	s0,a0
80001374:	045000ef          	jal	80001bb8 <memset>
80001378:	02000793          	li	a5,32
8000137c:	0cf42423          	sw	a5,200(s0)
80001380:	08800793          	li	a5,136
80001384:	0cf42623          	sw	a5,204(s0)
80001388:	47c5                	li	a5,17
8000138a:	40b2                	lw	ra,12(sp)
8000138c:	0cf42823          	sw	a5,208(s0)
80001390:	4422                	lw	s0,8(sp)
80001392:	0141                	add	sp,sp,16
80001394:	8082                	ret

80001396 <sha3_update>:
80001396:	7179                	add	sp,sp,-48
80001398:	0cc52783          	lw	a5,204(a0)
8000139c:	ca56                	sw	s5,20(sp)
8000139e:	0d452a83          	lw	s5,212(a0)
800013a2:	d422                	sw	s0,40(sp)
800013a4:	d226                	sw	s1,36(sp)
800013a6:	ce4e                	sw	s3,28(sp)
800013a8:	c85a                	sw	s6,16(sp)
800013aa:	d606                	sw	ra,44(sp)
800013ac:	00ca86b3          	add	a3,s5,a2
800013b0:	fff78713          	add	a4,a5,-1
800013b4:	8b2a                	mv	s6,a0
800013b6:	8432                	mv	s0,a2
800013b8:	84ae                	mv	s1,a1
800013ba:	0d850993          	add	s3,a0,216
800013be:	06d77463          	bgeu	a4,a3,80001426 <sha3_update+0x90>
800013c2:	d04a                	sw	s2,32(sp)
800013c4:	cc52                	sw	s4,24(sp)
800013c6:	872e                	mv	a4,a1
800013c8:	080a9163          	bnez	s5,8000144a <sha3_update+0xb4>
800013cc:	0d0b2903          	lw	s2,208(s6)
800013d0:	00391a13          	sll	s4,s2,0x3
800013d4:	9a5a                	add	s4,s4,s6
800013d6:	87da                	mv	a5,s6
800013d8:	02090463          	beqz	s2,80001400 <sha3_update+0x6a>
800013dc:	4310                	lw	a2,0(a4)
800013de:	00472883          	lw	a7,4(a4)
800013e2:	0007a803          	lw	a6,0(a5)
800013e6:	43d4                	lw	a3,4(a5)
800013e8:	07a1                	add	a5,a5,8
800013ea:	00c84833          	xor	a6,a6,a2
800013ee:	0116c6b3          	xor	a3,a3,a7
800013f2:	ff07ac23          	sw	a6,-8(a5)
800013f6:	fed7ae23          	sw	a3,-4(a5)
800013fa:	0721                	add	a4,a4,8
800013fc:	ff4790e3          	bne	a5,s4,800013dc <sha3_update+0x46>
80001400:	855a                	mv	a0,s6
80001402:	3199                	jal	80001048 <keccakf.constprop.0>
80001404:	0ccb2783          	lw	a5,204(s6)
80001408:	9abe                	add	s5,s5,a5
8000140a:	17fd                	add	a5,a5,-1
8000140c:	97d6                	add	a5,a5,s5
8000140e:	01548733          	add	a4,s1,s5
80001412:	fc87e2e3          	bltu	a5,s0,800013d6 <sha3_update+0x40>
80001416:	5902                	lw	s2,32(sp)
80001418:	4a62                	lw	s4,24(sp)
8000141a:	41540433          	sub	s0,s0,s5
8000141e:	0c0b2a23          	sw	zero,212(s6)
80001422:	84ba                	mv	s1,a4
80001424:	4a81                	li	s5,0
80001426:	01598533          	add	a0,s3,s5
8000142a:	8622                	mv	a2,s0
8000142c:	85a6                	mv	a1,s1
8000142e:	27a9                	jal	80001b78 <memcpy>
80001430:	0d4b2783          	lw	a5,212(s6)
80001434:	50b2                	lw	ra,44(sp)
80001436:	5492                	lw	s1,36(sp)
80001438:	97a2                	add	a5,a5,s0
8000143a:	5422                	lw	s0,40(sp)
8000143c:	0cfb2a23          	sw	a5,212(s6)
80001440:	49f2                	lw	s3,28(sp)
80001442:	4ad2                	lw	s5,20(sp)
80001444:	4b42                	lw	s6,16(sp)
80001446:	6145                	add	sp,sp,48
80001448:	8082                	ret
8000144a:	41578633          	sub	a2,a5,s5
8000144e:	01598533          	add	a0,s3,s5
80001452:	c64e                	sw	s3,12(sp)
80001454:	2715                	jal	80001b78 <memcpy>
80001456:	4732                	lw	a4,12(sp)
80001458:	41500ab3          	neg	s5,s5
8000145c:	bf85                	j	800013cc <sha3_update+0x36>

8000145e <hash_update_sha3>:
8000145e:	bf25                	j	80001396 <sha3_update>

80001460 <sha3_final>:
80001460:	0d452783          	lw	a5,212(a0)
80001464:	1141                	add	sp,sp,-16
80001466:	c422                	sw	s0,8(sp)
80001468:	842a                	mv	s0,a0
8000146a:	00f40733          	add	a4,s0,a5
8000146e:	c226                	sw	s1,4(sp)
80001470:	c606                	sw	ra,12(sp)
80001472:	4699                	li	a3,6
80001474:	0cd70c23          	sb	a3,216(a4)
80001478:	0cc42603          	lw	a2,204(s0)
8000147c:	0785                	add	a5,a5,1
8000147e:	0d850513          	add	a0,a0,216
80001482:	8e1d                	sub	a2,a2,a5
80001484:	953e                	add	a0,a0,a5
80001486:	84ae                	mv	s1,a1
80001488:	4581                	li	a1,0
8000148a:	273d                	jal	80001bb8 <memset>
8000148c:	0cc42783          	lw	a5,204(s0)
80001490:	17fd                	add	a5,a5,-1
80001492:	97a2                	add	a5,a5,s0
80001494:	0d87c703          	lbu	a4,216(a5)
80001498:	f8076713          	or	a4,a4,-128
8000149c:	0ce78c23          	sb	a4,216(a5)
800014a0:	0d042883          	lw	a7,208(s0)
800014a4:	02088563          	beqz	a7,800014ce <sha3_final+0x6e>
800014a8:	088e                	sll	a7,a7,0x3
800014aa:	87a2                	mv	a5,s0
800014ac:	98a2                	add	a7,a7,s0
800014ae:	4394                	lw	a3,0(a5)
800014b0:	43d8                	lw	a4,4(a5)
800014b2:	0d87a803          	lw	a6,216(a5)
800014b6:	0dc7a603          	lw	a2,220(a5)
800014ba:	07a1                	add	a5,a5,8
800014bc:	0106c6b3          	xor	a3,a3,a6
800014c0:	8f31                	xor	a4,a4,a2
800014c2:	fed7ac23          	sw	a3,-8(a5)
800014c6:	fee7ae23          	sw	a4,-4(a5)
800014ca:	ff1792e3          	bne	a5,a7,800014ae <sha3_final+0x4e>
800014ce:	8522                	mv	a0,s0
800014d0:	3ea5                	jal	80001048 <keccakf.constprop.0>
800014d2:	0c842603          	lw	a2,200(s0)
800014d6:	85a2                	mv	a1,s0
800014d8:	8526                	mv	a0,s1
800014da:	2d79                	jal	80001b78 <memcpy>
800014dc:	8522                	mv	a0,s0
800014de:	4422                	lw	s0,8(sp)
800014e0:	40b2                	lw	ra,12(sp)
800014e2:	4492                	lw	s1,4(sp)
800014e4:	16000613          	li	a2,352
800014e8:	4581                	li	a1,0
800014ea:	0141                	add	sp,sp,16
800014ec:	a5f1                	j	80001bb8 <memset>

800014ee <hash_final_sha3>:
800014ee:	bf8d                	j	80001460 <sha3_final>

800014f0 <sha3ONE>:
800014f0:	7149                	add	sp,sp,-368
800014f2:	16812423          	sw	s0,360(sp)
800014f6:	16912223          	sw	s1,356(sp)
800014fa:	17212023          	sw	s2,352(sp)
800014fe:	84aa                	mv	s1,a0
80001500:	892e                	mv	s2,a1
80001502:	8432                	mv	s0,a2
80001504:	4581                	li	a1,0
80001506:	16000613          	li	a2,352
8000150a:	850a                	mv	a0,sp
8000150c:	16112623          	sw	ra,364(sp)
80001510:	2565                	jal	80001bb8 <memset>
80001512:	02000793          	li	a5,32
80001516:	c5be                	sw	a5,200(sp)
80001518:	08800793          	li	a5,136
8000151c:	864a                	mv	a2,s2
8000151e:	85a6                	mv	a1,s1
80001520:	850a                	mv	a0,sp
80001522:	c7be                	sw	a5,204(sp)
80001524:	47c5                	li	a5,17
80001526:	c9be                	sw	a5,208(sp)
80001528:	35bd                	jal	80001396 <sha3_update>
8000152a:	850a                	mv	a0,sp
8000152c:	85a2                	mv	a1,s0
8000152e:	3f0d                	jal	80001460 <sha3_final>
80001530:	16c12083          	lw	ra,364(sp)
80001534:	16812403          	lw	s0,360(sp)
80001538:	16412483          	lw	s1,356(sp)
8000153c:	16012903          	lw	s2,352(sp)
80001540:	4501                	li	a0,0
80001542:	6175                	add	sp,sp,368
80001544:	8082                	ret

80001546 <vprintfmt>:
80001546:	714d                	add	sp,sp,-336
80001548:	14812423          	sw	s0,328(sp)
8000154c:	15212023          	sw	s2,320(sp)
80001550:	13312e23          	sw	s3,316(sp)
80001554:	13512a23          	sw	s5,308(sp)
80001558:	14112623          	sw	ra,332(sp)
8000155c:	14912223          	sw	s1,324(sp)
80001560:	13412c23          	sw	s4,312(sp)
80001564:	13712623          	sw	s7,300(sp)
80001568:	13812423          	sw	s8,296(sp)
8000156c:	13a12023          	sw	s10,288(sp)
80001570:	11b12e23          	sw	s11,284(sp)
80001574:	89aa                	mv	s3,a0
80001576:	892e                	mv	s2,a1
80001578:	8432                	mv	s0,a2
8000157a:	c636                	sw	a3,12(sp)
8000157c:	02500a93          	li	s5,37
80001580:	a029                	j	8000158a <vprintfmt+0x44>
80001582:	c531                	beqz	a0,800015ce <vprintfmt+0x88>
80001584:	85ca                	mv	a1,s2
80001586:	0405                	add	s0,s0,1
80001588:	9982                	jalr	s3
8000158a:	00044503          	lbu	a0,0(s0)
8000158e:	ff551ae3          	bne	a0,s5,80001582 <vprintfmt+0x3c>
80001592:	00144683          	lbu	a3,1(s0)
80001596:	00140a13          	add	s4,s0,1
8000159a:	02000793          	li	a5,32
8000159e:	8752                	mv	a4,s4
800015a0:	c43e                	sw	a5,8(sp)
800015a2:	54fd                	li	s1,-1
800015a4:	5c7d                	li	s8,-1
800015a6:	4581                	li	a1,0
800015a8:	fdd68793          	add	a5,a3,-35
800015ac:	0ff7f793          	zext.b	a5,a5
800015b0:	05500613          	li	a2,85
800015b4:	00170413          	add	s0,a4,1
800015b8:	06f66163          	bltu	a2,a5,8000161a <vprintfmt+0xd4>
800015bc:	00003617          	auipc	a2,0x3
800015c0:	be460613          	add	a2,a2,-1052 # 800041a0 <result.0+0x20>
800015c4:	078a                	sll	a5,a5,0x2
800015c6:	97b2                	add	a5,a5,a2
800015c8:	439c                	lw	a5,0(a5)
800015ca:	97b2                	add	a5,a5,a2
800015cc:	8782                	jr	a5
800015ce:	14c12083          	lw	ra,332(sp)
800015d2:	14812403          	lw	s0,328(sp)
800015d6:	14412483          	lw	s1,324(sp)
800015da:	14012903          	lw	s2,320(sp)
800015de:	13c12983          	lw	s3,316(sp)
800015e2:	13812a03          	lw	s4,312(sp)
800015e6:	13412a83          	lw	s5,308(sp)
800015ea:	12c12b83          	lw	s7,300(sp)
800015ee:	12812c03          	lw	s8,296(sp)
800015f2:	12012d03          	lw	s10,288(sp)
800015f6:	11c12d83          	lw	s11,284(sp)
800015fa:	6171                	add	sp,sp,336
800015fc:	8082                	ret
800015fe:	c436                	sw	a3,8(sp)
80001600:	00174683          	lbu	a3,1(a4)
80001604:	05500613          	li	a2,85
80001608:	8722                	mv	a4,s0
8000160a:	fdd68793          	add	a5,a3,-35
8000160e:	0ff7f793          	zext.b	a5,a5
80001612:	00170413          	add	s0,a4,1
80001616:	faf673e3          	bgeu	a2,a5,800015bc <vprintfmt+0x76>
8000161a:	85ca                	mv	a1,s2
8000161c:	02500513          	li	a0,37
80001620:	9982                	jalr	s3
80001622:	8452                	mv	s0,s4
80001624:	b79d                	j	8000158a <vprintfmt+0x44>
80001626:	00174603          	lbu	a2,1(a4)
8000162a:	47a5                	li	a5,9
8000162c:	fd068493          	add	s1,a3,-48
80001630:	fd060713          	add	a4,a2,-48
80001634:	86b2                	mv	a3,a2
80001636:	2ae7ec63          	bltu	a5,a4,800018ee <vprintfmt+0x3a8>
8000163a:	8722                	mv	a4,s0
8000163c:	4525                	li	a0,9
8000163e:	00249793          	sll	a5,s1,0x2
80001642:	97a6                	add	a5,a5,s1
80001644:	0705                	add	a4,a4,1
80001646:	0786                	sll	a5,a5,0x1
80001648:	97b2                	add	a5,a5,a2
8000164a:	00074603          	lbu	a2,0(a4)
8000164e:	fd078493          	add	s1,a5,-48
80001652:	fd060793          	add	a5,a2,-48
80001656:	86b2                	mv	a3,a2
80001658:	fef573e3          	bgeu	a0,a5,8000163e <vprintfmt+0xf8>
8000165c:	f40c56e3          	bgez	s8,800015a8 <vprintfmt+0x62>
80001660:	8c26                	mv	s8,s1
80001662:	54fd                	li	s1,-1
80001664:	b791                	j	800015a8 <vprintfmt+0x62>
80001666:	00174683          	lbu	a3,1(a4)
8000166a:	8722                	mv	a4,s0
8000166c:	bf35                	j	800015a8 <vprintfmt+0x62>
8000166e:	85ca                	mv	a1,s2
80001670:	02500513          	li	a0,37
80001674:	9982                	jalr	s3
80001676:	bf11                	j	8000158a <vprintfmt+0x44>
80001678:	47b2                	lw	a5,12(sp)
8000167a:	00174683          	lbu	a3,1(a4)
8000167e:	8722                	mv	a4,s0
80001680:	4384                	lw	s1,0(a5)
80001682:	0791                	add	a5,a5,4
80001684:	c63e                	sw	a5,12(sp)
80001686:	bfd9                	j	8000165c <vprintfmt+0x116>
80001688:	85ca                	mv	a1,s2
8000168a:	03000513          	li	a0,48
8000168e:	13612823          	sw	s6,304(sp)
80001692:	9982                	jalr	s3
80001694:	85ca                	mv	a1,s2
80001696:	07800513          	li	a0,120
8000169a:	9982                	jalr	s3
8000169c:	47b2                	lw	a5,12(sp)
8000169e:	4bc1                	li	s7,16
800016a0:	4d81                	li	s11,0
800016a2:	00478713          	add	a4,a5,4
800016a6:	47b2                	lw	a5,12(sp)
800016a8:	4d01                	li	s10,0
800016aa:	4384                	lw	s1,0(a5)
800016ac:	c63a                	sw	a4,12(sp)
800016ae:	865e                	mv	a2,s7
800016b0:	4681                	li	a3,0
800016b2:	8526                	mv	a0,s1
800016b4:	85ea                	mv	a1,s10
800016b6:	5a1000ef          	jal	80002456 <__umoddi3>
800016ba:	c82a                	sw	a0,16(sp)
800016bc:	1dad8f63          	beq	s11,s10,8000189a <vprintfmt+0x354>
800016c0:	13912223          	sw	s9,292(sp)
800016c4:	4b05                	li	s6,1
800016c6:	01410c93          	add	s9,sp,20
800016ca:	865e                	mv	a2,s7
800016cc:	4681                	li	a3,0
800016ce:	8526                	mv	a0,s1
800016d0:	85ea                	mv	a1,s10
800016d2:	227000ef          	jal	800020f8 <__udivdi3>
800016d6:	865e                	mv	a2,s7
800016d8:	4681                	li	a3,0
800016da:	84aa                	mv	s1,a0
800016dc:	8d2e                	mv	s10,a1
800016de:	579000ef          	jal	80002456 <__umoddi3>
800016e2:	00aca023          	sw	a0,0(s9)
800016e6:	8a5a                	mv	s4,s6
800016e8:	0c91                	add	s9,s9,4
800016ea:	0b05                	add	s6,s6,1
800016ec:	fdad9fe3          	bne	s11,s10,800016ca <vprintfmt+0x184>
800016f0:	fd74fde3          	bgeu	s1,s7,800016ca <vprintfmt+0x184>
800016f4:	12412c83          	lw	s9,292(sp)
800016f8:	fffc0b93          	add	s7,s8,-1
800016fc:	fffb0493          	add	s1,s6,-1
80001700:	018b5863          	bge	s6,s8,80001710 <vprintfmt+0x1ca>
80001704:	4522                	lw	a0,8(sp)
80001706:	85ca                	mv	a1,s2
80001708:	1bfd                	add	s7,s7,-1
8000170a:	9982                	jalr	s3
8000170c:	fe9b9ce3          	bne	s7,s1,80001704 <vprintfmt+0x1be>
80001710:	0804                	add	s1,sp,16
80001712:	0a0a                	sll	s4,s4,0x2
80001714:	9a26                	add	s4,s4,s1
80001716:	4b25                	li	s6,9
80001718:	a011                	j	8000171c <vprintfmt+0x1d6>
8000171a:	8a3e                	mv	s4,a5
8000171c:	000a2783          	lw	a5,0(s4)
80001720:	03000513          	li	a0,48
80001724:	00fb7463          	bgeu	s6,a5,8000172c <vprintfmt+0x1e6>
80001728:	05700513          	li	a0,87
8000172c:	953e                	add	a0,a0,a5
8000172e:	85ca                	mv	a1,s2
80001730:	9982                	jalr	s3
80001732:	ffca0793          	add	a5,s4,-4
80001736:	ff4492e3          	bne	s1,s4,8000171a <vprintfmt+0x1d4>
8000173a:	13012b03          	lw	s6,304(sp)
8000173e:	b5b1                	j	8000158a <vprintfmt+0x44>
80001740:	13612823          	sw	s6,304(sp)
80001744:	4785                	li	a5,1
80001746:	14b7cf63          	blt	a5,a1,800018a4 <vprintfmt+0x35e>
8000174a:	47b2                	lw	a5,12(sp)
8000174c:	4384                	lw	s1,0(a5)
8000174e:	0791                	add	a5,a5,4
80001750:	c63e                	sw	a5,12(sp)
80001752:	41f4dd13          	sra	s10,s1,0x1f
80001756:	000d5e63          	bgez	s10,80001772 <vprintfmt+0x22c>
8000175a:	85ca                	mv	a1,s2
8000175c:	02d00513          	li	a0,45
80001760:	9982                	jalr	s3
80001762:	00903733          	snez	a4,s1
80001766:	41a007b3          	neg	a5,s10
8000176a:	409004b3          	neg	s1,s1
8000176e:	40e78d33          	sub	s10,a5,a4
80001772:	4ba9                	li	s7,10
80001774:	4d81                	li	s11,0
80001776:	bf25                	j	800016ae <vprintfmt+0x168>
80001778:	00174683          	lbu	a3,1(a4)
8000177c:	0585                	add	a1,a1,1
8000177e:	8722                	mv	a4,s0
80001780:	b525                	j	800015a8 <vprintfmt+0x62>
80001782:	13612823          	sw	s6,304(sp)
80001786:	4bc1                	li	s7,16
80001788:	4d81                	li	s11,0
8000178a:	4785                	li	a5,1
8000178c:	0eb7c663          	blt	a5,a1,80001878 <vprintfmt+0x332>
80001790:	47b2                	lw	a5,12(sp)
80001792:	00478713          	add	a4,a5,4
80001796:	bf01                	j	800016a6 <vprintfmt+0x160>
80001798:	47b2                	lw	a5,12(sp)
8000179a:	13912223          	sw	s9,292(sp)
8000179e:	0007aa03          	lw	s4,0(a5)
800017a2:	00478c93          	add	s9,a5,4
800017a6:	040a0a63          	beqz	s4,800017fa <vprintfmt+0x2b4>
800017aa:	09805c63          	blez	s8,80001842 <vprintfmt+0x2fc>
800017ae:	4722                	lw	a4,8(sp)
800017b0:	02d00793          	li	a5,45
800017b4:	06f71063          	bne	a4,a5,80001814 <vprintfmt+0x2ce>
800017b8:	000a4503          	lbu	a0,0(s4)
800017bc:	c505                	beqz	a0,800017e4 <vprintfmt+0x29e>
800017be:	13612823          	sw	s6,304(sp)
800017c2:	5b7d                	li	s6,-1
800017c4:	0004c563          	bltz	s1,800017ce <vprintfmt+0x288>
800017c8:	14fd                	add	s1,s1,-1
800017ca:	01648963          	beq	s1,s6,800017dc <vprintfmt+0x296>
800017ce:	85ca                	mv	a1,s2
800017d0:	9982                	jalr	s3
800017d2:	001a4503          	lbu	a0,1(s4)
800017d6:	1c7d                	add	s8,s8,-1
800017d8:	0a05                	add	s4,s4,1
800017da:	f56d                	bnez	a0,800017c4 <vprintfmt+0x27e>
800017dc:	13012b03          	lw	s6,304(sp)
800017e0:	01805963          	blez	s8,800017f2 <vprintfmt+0x2ac>
800017e4:	85ca                	mv	a1,s2
800017e6:	02000513          	li	a0,32
800017ea:	1c7d                	add	s8,s8,-1
800017ec:	9982                	jalr	s3
800017ee:	fe0c1be3          	bnez	s8,800017e4 <vprintfmt+0x29e>
800017f2:	c666                	sw	s9,12(sp)
800017f4:	12412c83          	lw	s9,292(sp)
800017f8:	bb49                	j	8000158a <vprintfmt+0x44>
800017fa:	0f805063          	blez	s8,800018da <vprintfmt+0x394>
800017fe:	4722                	lw	a4,8(sp)
80001800:	02d00793          	li	a5,45
80001804:	00003a17          	auipc	s4,0x3
80001808:	c88a0a13          	add	s4,s4,-888 # 8000448c <__clz_tab+0x194>
8000180c:	02800513          	li	a0,40
80001810:	faf707e3          	beq	a4,a5,800017be <vprintfmt+0x278>
80001814:	87d2                	mv	a5,s4
80001816:	009a06b3          	add	a3,s4,s1
8000181a:	e489                	bnez	s1,80001824 <vprintfmt+0x2de>
8000181c:	a829                	j	80001836 <vprintfmt+0x2f0>
8000181e:	0785                	add	a5,a5,1
80001820:	00d78563          	beq	a5,a3,8000182a <vprintfmt+0x2e4>
80001824:	0007c703          	lbu	a4,0(a5)
80001828:	fb7d                	bnez	a4,8000181e <vprintfmt+0x2d8>
8000182a:	414787b3          	sub	a5,a5,s4
8000182e:	40fc0c33          	sub	s8,s8,a5
80001832:	01805863          	blez	s8,80001842 <vprintfmt+0x2fc>
80001836:	4522                	lw	a0,8(sp)
80001838:	85ca                	mv	a1,s2
8000183a:	1c7d                	add	s8,s8,-1
8000183c:	9982                	jalr	s3
8000183e:	fe0c1ce3          	bnez	s8,80001836 <vprintfmt+0x2f0>
80001842:	000a4503          	lbu	a0,0(s4)
80001846:	d555                	beqz	a0,800017f2 <vprintfmt+0x2ac>
80001848:	13612823          	sw	s6,304(sp)
8000184c:	bf9d                	j	800017c2 <vprintfmt+0x27c>
8000184e:	fffc4793          	not	a5,s8
80001852:	87fd                	sra	a5,a5,0x1f
80001854:	00174683          	lbu	a3,1(a4)
80001858:	00fc7c33          	and	s8,s8,a5
8000185c:	8722                	mv	a4,s0
8000185e:	b3a9                	j	800015a8 <vprintfmt+0x62>
80001860:	47b2                	lw	a5,12(sp)
80001862:	13912223          	sw	s9,292(sp)
80001866:	85ca                	mv	a1,s2
80001868:	4388                	lw	a0,0(a5)
8000186a:	00478c93          	add	s9,a5,4
8000186e:	9982                	jalr	s3
80001870:	c666                	sw	s9,12(sp)
80001872:	12412c83          	lw	s9,292(sp)
80001876:	bb11                	j	8000158a <vprintfmt+0x44>
80001878:	47b2                	lw	a5,12(sp)
8000187a:	13912223          	sw	s9,292(sp)
8000187e:	00778c93          	add	s9,a5,7
80001882:	ff8cfc93          	and	s9,s9,-8
80001886:	008c8793          	add	a5,s9,8
8000188a:	000ca483          	lw	s1,0(s9)
8000188e:	004cad03          	lw	s10,4(s9)
80001892:	c63e                	sw	a5,12(sp)
80001894:	12412c83          	lw	s9,292(sp)
80001898:	bd19                	j	800016ae <vprintfmt+0x168>
8000189a:	e374f3e3          	bgeu	s1,s7,800016c0 <vprintfmt+0x17a>
8000189e:	4a01                	li	s4,0
800018a0:	4b05                	li	s6,1
800018a2:	bd99                	j	800016f8 <vprintfmt+0x1b2>
800018a4:	47b2                	lw	a5,12(sp)
800018a6:	13912223          	sw	s9,292(sp)
800018aa:	00778c93          	add	s9,a5,7
800018ae:	ff8cfc93          	and	s9,s9,-8
800018b2:	008c8793          	add	a5,s9,8
800018b6:	000ca483          	lw	s1,0(s9)
800018ba:	004cad03          	lw	s10,4(s9)
800018be:	c63e                	sw	a5,12(sp)
800018c0:	12412c83          	lw	s9,292(sp)
800018c4:	bd49                	j	80001756 <vprintfmt+0x210>
800018c6:	13612823          	sw	s6,304(sp)
800018ca:	4ba9                	li	s7,10
800018cc:	4d81                	li	s11,0
800018ce:	bd75                	j	8000178a <vprintfmt+0x244>
800018d0:	13612823          	sw	s6,304(sp)
800018d4:	4ba1                	li	s7,8
800018d6:	4d81                	li	s11,0
800018d8:	bd4d                	j	8000178a <vprintfmt+0x244>
800018da:	13612823          	sw	s6,304(sp)
800018de:	00003a17          	auipc	s4,0x3
800018e2:	baea0a13          	add	s4,s4,-1106 # 8000448c <__clz_tab+0x194>
800018e6:	02800513          	li	a0,40
800018ea:	5b7d                	li	s6,-1
800018ec:	bde1                	j	800017c4 <vprintfmt+0x27e>
800018ee:	8722                	mv	a4,s0
800018f0:	b3b5                	j	8000165c <vprintfmt+0x116>

800018f2 <sprintf_putch.0>:
800018f2:	419c                	lw	a5,0(a1)
800018f4:	00a78023          	sb	a0,0(a5)
800018f8:	419c                	lw	a5,0(a1)
800018fa:	0785                	add	a5,a5,1
800018fc:	c19c                	sw	a5,0(a1)
800018fe:	8082                	ret

80001900 <putchar>:
80001900:	04022803          	lw	a6,64(tp) # 40 <buflen.1>
80001904:	00020793          	mv	a5,tp
80001908:	97c2                	add	a5,a5,a6
8000190a:	7119                	add	sp,sp,-128
8000190c:	00180713          	add	a4,a6,1
80001910:	04e22023          	sw	a4,64(tp) # 40 <buflen.1>
80001914:	00a78023          	sb	a0,0(a5)
80001918:	03f10693          	add	a3,sp,63
8000191c:	47a9                	li	a5,10
8000191e:	fc06f693          	and	a3,a3,-64
80001922:	00f50963          	beq	a0,a5,80001934 <putchar+0x34>
80001926:	04000793          	li	a5,64
8000192a:	00f70563          	beq	a4,a5,80001934 <putchar+0x34>
8000192e:	4501                	li	a0,0
80001930:	6109                	add	sp,sp,128
80001932:	8082                	ret
80001934:	02000813          	li	a6,32
80001938:	0106a023          	sw	a6,0(a3)
8000193c:	4881                	li	a7,0
8000193e:	0116a223          	sw	a7,4(a3)
80001942:	4e05                	li	t3,1
80001944:	01c6a423          	sw	t3,8(a3)
80001948:	4e81                	li	t4,0
8000194a:	01d6a623          	sw	t4,12(a3)
8000194e:	00020313          	mv	t1,tp
80001952:	0066a823          	sw	t1,16(a3)
80001956:	4381                	li	t2,0
80001958:	0076aa23          	sw	t2,20(a3)
8000195c:	ce98                	sw	a4,24(a3)
8000195e:	41f75893          	sra	a7,a4,0x1f
80001962:	0116ae23          	sw	a7,28(a3)
80001966:	0ff0000f          	fence
8000196a:	fffff617          	auipc	a2,0xfffff
8000196e:	69660613          	add	a2,a2,1686 # 80001000 <tohost>
80001972:	c214                	sw	a3,0(a2)
80001974:	4781                	li	a5,0
80001976:	c25c                	sw	a5,4(a2)
80001978:	fffff617          	auipc	a2,0xfffff
8000197c:	6c860613          	add	a2,a2,1736 # 80001040 <fromhost>
80001980:	4218                	lw	a4,0(a2)
80001982:	425c                	lw	a5,4(a2)
80001984:	8f5d                	or	a4,a4,a5
80001986:	df6d                	beqz	a4,80001980 <putchar+0x80>
80001988:	4781                	li	a5,0
8000198a:	c21c                	sw	a5,0(a2)
8000198c:	4801                	li	a6,0
8000198e:	01062223          	sw	a6,4(a2)
80001992:	0ff0000f          	fence
80001996:	04022023          	sw	zero,64(tp) # 40 <buflen.1>
8000199a:	4298                	lw	a4,0(a3)
8000199c:	4501                	li	a0,0
8000199e:	42dc                	lw	a5,4(a3)
800019a0:	6109                	add	sp,sp,128
800019a2:	8082                	ret

800019a4 <setStats>:
800019a4:	b0002773          	csrr	a4,mcycle
800019a8:	00003797          	auipc	a5,0x3
800019ac:	b9478793          	add	a5,a5,-1132 # 8000453c <counters>
800019b0:	c511                	beqz	a0,800019bc <setStats+0x18>
800019b2:	c398                	sw	a4,0(a5)
800019b4:	b0202773          	csrr	a4,minstret
800019b8:	c3d8                	sw	a4,4(a5)
800019ba:	8082                	ret
800019bc:	4390                	lw	a2,0(a5)
800019be:	00003697          	auipc	a3,0x3
800019c2:	b7668693          	add	a3,a3,-1162 # 80004534 <counter_names>
800019c6:	8f11                	sub	a4,a4,a2
800019c8:	00003617          	auipc	a2,0x3
800019cc:	acc60613          	add	a2,a2,-1332 # 80004494 <__clz_tab+0x19c>
800019d0:	c290                	sw	a2,0(a3)
800019d2:	c398                	sw	a4,0(a5)
800019d4:	b0202773          	csrr	a4,minstret
800019d8:	43d0                	lw	a2,4(a5)
800019da:	00003597          	auipc	a1,0x3
800019de:	ac258593          	add	a1,a1,-1342 # 8000449c <__clz_tab+0x1a4>
800019e2:	c2cc                	sw	a1,4(a3)
800019e4:	8f11                	sub	a4,a4,a2
800019e6:	c3d8                	sw	a4,4(a5)
800019e8:	8082                	ret

800019ea <tohost_exit>:
800019ea:	00151693          	sll	a3,a0,0x1
800019ee:	0016e713          	or	a4,a3,1
800019f2:	fffff697          	auipc	a3,0xfffff
800019f6:	60e68693          	add	a3,a3,1550 # 80001000 <tohost>
800019fa:	4781                	li	a5,0
800019fc:	c298                	sw	a4,0(a3)
800019fe:	c2dc                	sw	a5,4(a3)
80001a00:	a001                	j	80001a00 <tohost_exit+0x16>

80001a02 <handle_trap>:
80001a02:	6605                	lui	a2,0x1
80001a04:	fffff797          	auipc	a5,0xfffff
80001a08:	5fc78793          	add	a5,a5,1532 # 80001000 <tohost>
80001a0c:	a7360613          	add	a2,a2,-1421 # a73 <_tbss_end+0xa2f>
80001a10:	4681                	li	a3,0
80001a12:	c390                	sw	a2,0(a5)
80001a14:	c3d4                	sw	a3,4(a5)
80001a16:	a001                	j	80001a16 <handle_trap+0x14>

80001a18 <exit>:
80001a18:	1141                	add	sp,sp,-16
80001a1a:	c606                	sw	ra,12(sp)
80001a1c:	37f9                	jal	800019ea <tohost_exit>

80001a1e <abort>:
80001a1e:	fffff797          	auipc	a5,0xfffff
80001a22:	5e278793          	add	a5,a5,1506 # 80001000 <tohost>
80001a26:	10d00613          	li	a2,269
80001a2a:	4681                	li	a3,0
80001a2c:	c390                	sw	a2,0(a5)
80001a2e:	c3d4                	sw	a3,4(a5)
80001a30:	a001                	j	80001a30 <abort+0x12>

80001a32 <printstr>:
80001a32:	00054783          	lbu	a5,0(a0)
80001a36:	7119                	add	sp,sp,-128
80001a38:	03f10613          	add	a2,sp,63
80001a3c:	882a                	mv	a6,a0
80001a3e:	fc067613          	and	a2,a2,-64
80001a42:	4881                	li	a7,0
80001a44:	c7b5                	beqz	a5,80001ab0 <printstr+0x7e>
80001a46:	87aa                	mv	a5,a0
80001a48:	0017c703          	lbu	a4,1(a5)
80001a4c:	0785                	add	a5,a5,1
80001a4e:	ff6d                	bnez	a4,80001a48 <printstr+0x16>
80001a50:	40a78333          	sub	t1,a5,a0
80001a54:	4381                	li	t2,0
80001a56:	02000713          	li	a4,32
80001a5a:	c218                	sw	a4,0(a2)
80001a5c:	4781                	li	a5,0
80001a5e:	c25c                	sw	a5,4(a2)
80001a60:	4705                	li	a4,1
80001a62:	c618                	sw	a4,8(a2)
80001a64:	4781                	li	a5,0
80001a66:	c65c                	sw	a5,12(a2)
80001a68:	01062823          	sw	a6,16(a2)
80001a6c:	01162a23          	sw	a7,20(a2)
80001a70:	00662c23          	sw	t1,24(a2)
80001a74:	00762e23          	sw	t2,28(a2)
80001a78:	0ff0000f          	fence
80001a7c:	fffff697          	auipc	a3,0xfffff
80001a80:	58468693          	add	a3,a3,1412 # 80001000 <tohost>
80001a84:	c290                	sw	a2,0(a3)
80001a86:	4781                	li	a5,0
80001a88:	c2dc                	sw	a5,4(a3)
80001a8a:	fffff697          	auipc	a3,0xfffff
80001a8e:	5b668693          	add	a3,a3,1462 # 80001040 <fromhost>
80001a92:	4298                	lw	a4,0(a3)
80001a94:	42dc                	lw	a5,4(a3)
80001a96:	8f5d                	or	a4,a4,a5
80001a98:	df6d                	beqz	a4,80001a92 <printstr+0x60>
80001a9a:	4781                	li	a5,0
80001a9c:	c29c                	sw	a5,0(a3)
80001a9e:	4801                	li	a6,0
80001aa0:	0106a223          	sw	a6,4(a3)
80001aa4:	0ff0000f          	fence
80001aa8:	4218                	lw	a4,0(a2)
80001aaa:	425c                	lw	a5,4(a2)
80001aac:	6109                	add	sp,sp,128
80001aae:	8082                	ret
80001ab0:	4301                	li	t1,0
80001ab2:	4381                	li	t2,0
80001ab4:	b74d                	j	80001a56 <printstr+0x24>

80001ab6 <thread_entry>:
80001ab6:	c111                	beqz	a0,80001aba <thread_entry+0x4>
80001ab8:	a001                	j	80001ab8 <thread_entry+0x2>
80001aba:	8082                	ret

80001abc <printhex>:
80001abc:	7179                	add	sp,sp,-48
80001abe:	872a                	mv	a4,a0
80001ac0:	d606                	sw	ra,44(sp)
80001ac2:	0068                	add	a0,sp,12
80001ac4:	01b10693          	add	a3,sp,27
80001ac8:	4825                	li	a6,9
80001aca:	a011                	j	80001ace <printhex+0x12>
80001acc:	86be                	mv	a3,a5
80001ace:	00f77793          	and	a5,a4,15
80001ad2:	00f837b3          	sltu	a5,a6,a5
80001ad6:	40f007b3          	neg	a5,a5
80001ada:	0277f793          	and	a5,a5,39
80001ade:	00f77613          	and	a2,a4,15
80001ae2:	03078793          	add	a5,a5,48
80001ae6:	97b2                	add	a5,a5,a2
80001ae8:	00f68023          	sb	a5,0(a3)
80001aec:	01c59613          	sll	a2,a1,0x1c
80001af0:	8311                	srl	a4,a4,0x4
80001af2:	fff68793          	add	a5,a3,-1
80001af6:	8f51                	or	a4,a4,a2
80001af8:	8191                	srl	a1,a1,0x4
80001afa:	fcd519e3          	bne	a0,a3,80001acc <printhex+0x10>
80001afe:	00010e23          	sb	zero,28(sp)
80001b02:	3f05                	jal	80001a32 <printstr>
80001b04:	50b2                	lw	ra,44(sp)
80001b06:	6145                	add	sp,sp,48
80001b08:	8082                	ret

80001b0a <printf>:
80001b0a:	7139                	add	sp,sp,-64
80001b0c:	02410313          	add	t1,sp,36
80001b10:	d22e                	sw	a1,36(sp)
80001b12:	d432                	sw	a2,40(sp)
80001b14:	d636                	sw	a3,44(sp)
80001b16:	862a                	mv	a2,a0
80001b18:	869a                	mv	a3,t1
80001b1a:	00000517          	auipc	a0,0x0
80001b1e:	de650513          	add	a0,a0,-538 # 80001900 <putchar>
80001b22:	4581                	li	a1,0
80001b24:	ce06                	sw	ra,28(sp)
80001b26:	d83a                	sw	a4,48(sp)
80001b28:	da3e                	sw	a5,52(sp)
80001b2a:	dc42                	sw	a6,56(sp)
80001b2c:	de46                	sw	a7,60(sp)
80001b2e:	c61a                	sw	t1,12(sp)
80001b30:	3c19                	jal	80001546 <vprintfmt>
80001b32:	40f2                	lw	ra,28(sp)
80001b34:	4501                	li	a0,0
80001b36:	6121                	add	sp,sp,64
80001b38:	8082                	ret

80001b3a <sprintf>:
80001b3a:	715d                	add	sp,sp,-80
80001b3c:	03810e13          	add	t3,sp,56
80001b40:	d422                	sw	s0,40(sp)
80001b42:	c62a                	sw	a0,12(sp)
80001b44:	842a                	mv	s0,a0
80001b46:	dc32                	sw	a2,56(sp)
80001b48:	de36                	sw	a3,60(sp)
80001b4a:	862e                	mv	a2,a1
80001b4c:	00000517          	auipc	a0,0x0
80001b50:	da650513          	add	a0,a0,-602 # 800018f2 <sprintf_putch.0>
80001b54:	006c                	add	a1,sp,12
80001b56:	86f2                	mv	a3,t3
80001b58:	d606                	sw	ra,44(sp)
80001b5a:	c2be                	sw	a5,68(sp)
80001b5c:	c0ba                	sw	a4,64(sp)
80001b5e:	c4c2                	sw	a6,72(sp)
80001b60:	c6c6                	sw	a7,76(sp)
80001b62:	ce72                	sw	t3,28(sp)
80001b64:	32cd                	jal	80001546 <vprintfmt>
80001b66:	47b2                	lw	a5,12(sp)
80001b68:	00078023          	sb	zero,0(a5)
80001b6c:	4532                	lw	a0,12(sp)
80001b6e:	50b2                	lw	ra,44(sp)
80001b70:	8d01                	sub	a0,a0,s0
80001b72:	5422                	lw	s0,40(sp)
80001b74:	6161                	add	sp,sp,80
80001b76:	8082                	ret

80001b78 <memcpy>:
80001b78:	00c5e7b3          	or	a5,a1,a2
80001b7c:	8fc9                	or	a5,a5,a0
80001b7e:	8b8d                	and	a5,a5,3
80001b80:	00c506b3          	add	a3,a0,a2
80001b84:	cf91                	beqz	a5,80001ba0 <memcpy+0x28>
80001b86:	962e                	add	a2,a2,a1
80001b88:	87aa                	mv	a5,a0
80001b8a:	02d57663          	bgeu	a0,a3,80001bb6 <memcpy+0x3e>
80001b8e:	0005c703          	lbu	a4,0(a1)
80001b92:	0585                	add	a1,a1,1
80001b94:	0785                	add	a5,a5,1
80001b96:	fee78fa3          	sb	a4,-1(a5)
80001b9a:	feb61ae3          	bne	a2,a1,80001b8e <memcpy+0x16>
80001b9e:	8082                	ret
80001ba0:	fed57fe3          	bgeu	a0,a3,80001b9e <memcpy+0x26>
80001ba4:	87aa                	mv	a5,a0
80001ba6:	4198                	lw	a4,0(a1)
80001ba8:	0791                	add	a5,a5,4
80001baa:	0591                	add	a1,a1,4
80001bac:	fee7ae23          	sw	a4,-4(a5)
80001bb0:	fed7ebe3          	bltu	a5,a3,80001ba6 <memcpy+0x2e>
80001bb4:	8082                	ret
80001bb6:	8082                	ret

80001bb8 <memset>:
80001bb8:	00c567b3          	or	a5,a0,a2
80001bbc:	8b8d                	and	a5,a5,3
80001bbe:	962a                	add	a2,a2,a0
80001bc0:	cf81                	beqz	a5,80001bd8 <memset+0x20>
80001bc2:	0ff5f593          	zext.b	a1,a1
80001bc6:	87aa                	mv	a5,a0
80001bc8:	02c57963          	bgeu	a0,a2,80001bfa <memset+0x42>
80001bcc:	0785                	add	a5,a5,1
80001bce:	feb78fa3          	sb	a1,-1(a5)
80001bd2:	fec79de3          	bne	a5,a2,80001bcc <memset+0x14>
80001bd6:	8082                	ret
80001bd8:	0ff5f593          	zext.b	a1,a1
80001bdc:	00859713          	sll	a4,a1,0x8
80001be0:	972e                	add	a4,a4,a1
80001be2:	01071793          	sll	a5,a4,0x10
80001be6:	973e                	add	a4,a4,a5
80001be8:	fec577e3          	bgeu	a0,a2,80001bd6 <memset+0x1e>
80001bec:	87aa                	mv	a5,a0
80001bee:	0791                	add	a5,a5,4
80001bf0:	fee7ae23          	sw	a4,-4(a5)
80001bf4:	fec7ede3          	bltu	a5,a2,80001bee <memset+0x36>
80001bf8:	8082                	ret
80001bfa:	8082                	ret

80001bfc <_init>:
80001bfc:	7135                	add	sp,sp,-160
80001bfe:	cd22                	sw	s0,152(sp)
80001c00:	cb26                	sw	s1,148(sp)
80001c02:	00003417          	auipc	s0,0x3
80001c06:	91e42403          	lw	s0,-1762(s0) # 80004520 <_GLOBAL_OFFSET_TABLE_+0x4>
80001c0a:	00003497          	auipc	s1,0x3
80001c0e:	91a4a483          	lw	s1,-1766(s1) # 80004524 <_GLOBAL_OFFSET_TABLE_+0x8>
80001c12:	c74e                	sw	s3,140(sp)
80001c14:	c552                	sw	s4,136(sp)
80001c16:	409404b3          	sub	s1,s0,s1
80001c1a:	8626                	mv	a2,s1
80001c1c:	89aa                	mv	s3,a0
80001c1e:	8a2e                	mv	s4,a1
80001c20:	8512                	mv	a0,tp
80001c22:	90c18593          	add	a1,gp,-1780 # 80004640 <_end>
80001c26:	cf06                	sw	ra,156(sp)
80001c28:	c94a                	sw	s2,144(sp)
80001c2a:	c356                	sw	s5,132(sp)
80001c2c:	8a92                	mv	s5,tp
80001c2e:	37a9                	jal	80001b78 <memcpy>
80001c30:	00003617          	auipc	a2,0x3
80001c34:	8f862603          	lw	a2,-1800(a2) # 80004528 <_GLOBAL_OFFSET_TABLE_+0xc>
80001c38:	4581                	li	a1,0
80001c3a:	009a8533          	add	a0,s5,s1
80001c3e:	8e01                	sub	a2,a2,s0
80001c40:	3fa5                	jal	80001bb8 <memset>
80001c42:	85d2                	mv	a1,s4
80001c44:	854e                	mv	a0,s3
80001c46:	3d85                	jal	80001ab6 <thread_entry>
80001c48:	4581                	li	a1,0
80001c4a:	4501                	li	a0,0
80001c4c:	333000ef          	jal	8000277e <main>
80001c50:	00003497          	auipc	s1,0x3
80001c54:	8ec48493          	add	s1,s1,-1812 # 8000453c <counters>
80001c58:	4094                	lw	a3,0(s1)
80001c5a:	03f10913          	add	s2,sp,63
80001c5e:	fc097913          	and	s2,s2,-64
80001c62:	842a                	mv	s0,a0
80001c64:	ea85                	bnez	a3,80001c94 <_init+0x98>
80001c66:	40d4                	lw	a3,4(s1)
80001c68:	e299                	bnez	a3,80001c6e <_init+0x72>
80001c6a:	8522                	mv	a0,s0
80001c6c:	3bbd                	jal	800019ea <tohost_exit>
80001c6e:	84ca                	mv	s1,s2
80001c70:	00003997          	auipc	s3,0x3
80001c74:	8c498993          	add	s3,s3,-1852 # 80004534 <counter_names>
80001c78:	0049a603          	lw	a2,4(s3)
80001c7c:	8526                	mv	a0,s1
80001c7e:	00003597          	auipc	a1,0x3
80001c82:	84258593          	add	a1,a1,-1982 # 800044c0 <__clz_tab+0x1c8>
80001c86:	3d55                	jal	80001b3a <sprintf>
80001c88:	94aa                	add	s1,s1,a0
80001c8a:	fe9900e3          	beq	s2,s1,80001c6a <_init+0x6e>
80001c8e:	854a                	mv	a0,s2
80001c90:	334d                	jal	80001a32 <printstr>
80001c92:	bfe1                	j	80001c6a <_init+0x6e>
80001c94:	00003997          	auipc	s3,0x3
80001c98:	8a098993          	add	s3,s3,-1888 # 80004534 <counter_names>
80001c9c:	0009a603          	lw	a2,0(s3)
80001ca0:	00003597          	auipc	a1,0x3
80001ca4:	82058593          	add	a1,a1,-2016 # 800044c0 <__clz_tab+0x1c8>
80001ca8:	854a                	mv	a0,s2
80001caa:	3d41                	jal	80001b3a <sprintf>
80001cac:	40d4                	lw	a3,4(s1)
80001cae:	00a904b3          	add	s1,s2,a0
80001cb2:	dee1                	beqz	a3,80001c8a <_init+0x8e>
80001cb4:	b7d1                	j	80001c78 <_init+0x7c>

80001cb6 <strlen>:
80001cb6:	00054783          	lbu	a5,0(a0)
80001cba:	cb89                	beqz	a5,80001ccc <strlen+0x16>
80001cbc:	87aa                	mv	a5,a0
80001cbe:	0017c703          	lbu	a4,1(a5)
80001cc2:	0785                	add	a5,a5,1
80001cc4:	ff6d                	bnez	a4,80001cbe <strlen+0x8>
80001cc6:	40a78533          	sub	a0,a5,a0
80001cca:	8082                	ret
80001ccc:	4501                	li	a0,0
80001cce:	8082                	ret

80001cd0 <strnlen>:
80001cd0:	00b506b3          	add	a3,a0,a1
80001cd4:	87aa                	mv	a5,a0
80001cd6:	e589                	bnez	a1,80001ce0 <strnlen+0x10>
80001cd8:	a829                	j	80001cf2 <strnlen+0x22>
80001cda:	0785                	add	a5,a5,1
80001cdc:	00f68863          	beq	a3,a5,80001cec <strnlen+0x1c>
80001ce0:	0007c703          	lbu	a4,0(a5)
80001ce4:	fb7d                	bnez	a4,80001cda <strnlen+0xa>
80001ce6:	40a78533          	sub	a0,a5,a0
80001cea:	8082                	ret
80001cec:	40a68533          	sub	a0,a3,a0
80001cf0:	8082                	ret
80001cf2:	4501                	li	a0,0
80001cf4:	8082                	ret

80001cf6 <strcmp>:
80001cf6:	00054783          	lbu	a5,0(a0)
80001cfa:	0585                	add	a1,a1,1
80001cfc:	0505                	add	a0,a0,1
80001cfe:	fff5c703          	lbu	a4,-1(a1)
80001d02:	c791                	beqz	a5,80001d0e <strcmp+0x18>
80001d04:	fee789e3          	beq	a5,a4,80001cf6 <strcmp>
80001d08:	40e78533          	sub	a0,a5,a4
80001d0c:	8082                	ret
80001d0e:	4781                	li	a5,0
80001d10:	bfe5                	j	80001d08 <strcmp+0x12>

80001d12 <strcpy>:
80001d12:	87aa                	mv	a5,a0
80001d14:	0005c703          	lbu	a4,0(a1)
80001d18:	0785                	add	a5,a5,1
80001d1a:	0585                	add	a1,a1,1
80001d1c:	fee78fa3          	sb	a4,-1(a5)
80001d20:	fb75                	bnez	a4,80001d14 <strcpy+0x2>
80001d22:	8082                	ret

80001d24 <atol>:
80001d24:	00054703          	lbu	a4,0(a0)
80001d28:	02000693          	li	a3,32
80001d2c:	87aa                	mv	a5,a0
80001d2e:	00d71763          	bne	a4,a3,80001d3c <atol+0x18>
80001d32:	0017c703          	lbu	a4,1(a5)
80001d36:	0785                	add	a5,a5,1
80001d38:	fed70de3          	beq	a4,a3,80001d32 <atol+0xe>
80001d3c:	02d00693          	li	a3,45
80001d40:	04d70163          	beq	a4,a3,80001d82 <atol+0x5e>
80001d44:	02b00693          	li	a3,43
80001d48:	02d70763          	beq	a4,a3,80001d76 <atol+0x52>
80001d4c:	0007c683          	lbu	a3,0(a5)
80001d50:	4581                	li	a1,0
80001d52:	ce8d                	beqz	a3,80001d8c <atol+0x68>
80001d54:	4501                	li	a0,0
80001d56:	0785                	add	a5,a5,1
80001d58:	00251713          	sll	a4,a0,0x2
80001d5c:	fd068613          	add	a2,a3,-48
80001d60:	0007c683          	lbu	a3,0(a5)
80001d64:	972a                	add	a4,a4,a0
80001d66:	0706                	sll	a4,a4,0x1
80001d68:	00e60533          	add	a0,a2,a4
80001d6c:	f6ed                	bnez	a3,80001d56 <atol+0x32>
80001d6e:	c185                	beqz	a1,80001d8e <atol+0x6a>
80001d70:	40a00533          	neg	a0,a0
80001d74:	8082                	ret
80001d76:	0017c683          	lbu	a3,1(a5)
80001d7a:	0785                	add	a5,a5,1
80001d7c:	ca81                	beqz	a3,80001d8c <atol+0x68>
80001d7e:	4581                	li	a1,0
80001d80:	bfd1                	j	80001d54 <atol+0x30>
80001d82:	0017c683          	lbu	a3,1(a5)
80001d86:	4585                	li	a1,1
80001d88:	0785                	add	a5,a5,1
80001d8a:	f6e9                	bnez	a3,80001d54 <atol+0x30>
80001d8c:	4501                	li	a0,0
80001d8e:	8082                	ret

80001d90 <__moddi3>:
80001d90:	8e2e                	mv	t3,a1
80001d92:	4801                	li	a6,0
80001d94:	0005db63          	bgez	a1,80001daa <__moddi3+0x1a>
80001d98:	00a037b3          	snez	a5,a0
80001d9c:	40b00e33          	neg	t3,a1
80001da0:	40fe0e33          	sub	t3,t3,a5
80001da4:	40a00533          	neg	a0,a0
80001da8:	587d                	li	a6,-1
80001daa:	0006d963          	bgez	a3,80001dbc <__moddi3+0x2c>
80001dae:	00c037b3          	snez	a5,a2
80001db2:	40d006b3          	neg	a3,a3
80001db6:	8e9d                	sub	a3,a3,a5
80001db8:	40c00633          	neg	a2,a2
80001dbc:	88b2                	mv	a7,a2
80001dbe:	87aa                	mv	a5,a0
80001dc0:	85f2                	mv	a1,t3
80001dc2:	1a069c63          	bnez	a3,80001f7a <__moddi3+0x1ea>
80001dc6:	80004737          	lui	a4,0x80004
80001dca:	2f870713          	add	a4,a4,760 # 800042f8 <__clz_tab>
80001dce:	0ace7e63          	bgeu	t3,a2,80001e8a <__moddi3+0xfa>
80001dd2:	66c1                	lui	a3,0x10
80001dd4:	0ad67463          	bgeu	a2,a3,80001e7c <__moddi3+0xec>
80001dd8:	10063693          	sltiu	a3,a2,256
80001ddc:	0016b693          	seqz	a3,a3
80001de0:	068e                	sll	a3,a3,0x3
80001de2:	00d65333          	srl	t1,a2,a3
80001de6:	971a                	add	a4,a4,t1
80001de8:	00074703          	lbu	a4,0(a4)
80001dec:	9736                	add	a4,a4,a3
80001dee:	02000693          	li	a3,32
80001df2:	40e68333          	sub	t1,a3,a4
80001df6:	00e68b63          	beq	a3,a4,80001e0c <__moddi3+0x7c>
80001dfa:	006e15b3          	sll	a1,t3,t1
80001dfe:	00e55733          	srl	a4,a0,a4
80001e02:	006618b3          	sll	a7,a2,t1
80001e06:	8dd9                	or	a1,a1,a4
80001e08:	006517b3          	sll	a5,a0,t1
80001e0c:	0108d613          	srl	a2,a7,0x10
80001e10:	02c5d6b3          	divu	a3,a1,a2
80001e14:	01089513          	sll	a0,a7,0x10
80001e18:	8141                	srl	a0,a0,0x10
80001e1a:	0107d713          	srl	a4,a5,0x10
80001e1e:	02c5f5b3          	remu	a1,a1,a2
80001e22:	02a686b3          	mul	a3,a3,a0
80001e26:	05c2                	sll	a1,a1,0x10
80001e28:	8f4d                	or	a4,a4,a1
80001e2a:	00d77863          	bgeu	a4,a3,80001e3a <__moddi3+0xaa>
80001e2e:	9746                	add	a4,a4,a7
80001e30:	01176563          	bltu	a4,a7,80001e3a <__moddi3+0xaa>
80001e34:	00d77363          	bgeu	a4,a3,80001e3a <__moddi3+0xaa>
80001e38:	9746                	add	a4,a4,a7
80001e3a:	8f15                	sub	a4,a4,a3
80001e3c:	02c756b3          	divu	a3,a4,a2
80001e40:	02c77733          	remu	a4,a4,a2
80001e44:	02a686b3          	mul	a3,a3,a0
80001e48:	07c2                	sll	a5,a5,0x10
80001e4a:	0742                	sll	a4,a4,0x10
80001e4c:	83c1                	srl	a5,a5,0x10
80001e4e:	8fd9                	or	a5,a5,a4
80001e50:	00d7f863          	bgeu	a5,a3,80001e60 <__moddi3+0xd0>
80001e54:	97c6                	add	a5,a5,a7
80001e56:	0117e563          	bltu	a5,a7,80001e60 <__moddi3+0xd0>
80001e5a:	00d7f363          	bgeu	a5,a3,80001e60 <__moddi3+0xd0>
80001e5e:	97c6                	add	a5,a5,a7
80001e60:	8f95                	sub	a5,a5,a3
80001e62:	0067d533          	srl	a0,a5,t1
80001e66:	4581                	li	a1,0
80001e68:	00080963          	beqz	a6,80001e7a <__moddi3+0xea>
80001e6c:	00a037b3          	snez	a5,a0
80001e70:	40b005b3          	neg	a1,a1
80001e74:	8d9d                	sub	a1,a1,a5
80001e76:	40a00533          	neg	a0,a0
80001e7a:	8082                	ret
80001e7c:	01000337          	lui	t1,0x1000
80001e80:	46e1                	li	a3,24
80001e82:	f66670e3          	bgeu	a2,t1,80001de2 <__moddi3+0x52>
80001e86:	46c1                	li	a3,16
80001e88:	bfa9                	j	80001de2 <__moddi3+0x52>
80001e8a:	4681                	li	a3,0
80001e8c:	ca09                	beqz	a2,80001e9e <__moddi3+0x10e>
80001e8e:	66c1                	lui	a3,0x10
80001e90:	06d67463          	bgeu	a2,a3,80001ef8 <__moddi3+0x168>
80001e94:	10063693          	sltiu	a3,a2,256
80001e98:	0016b693          	seqz	a3,a3
80001e9c:	068e                	sll	a3,a3,0x3
80001e9e:	00d655b3          	srl	a1,a2,a3
80001ea2:	972e                	add	a4,a4,a1
80001ea4:	00074703          	lbu	a4,0(a4)
80001ea8:	9736                	add	a4,a4,a3
80001eaa:	02000693          	li	a3,32
80001eae:	40e68333          	sub	t1,a3,a4
80001eb2:	04e69a63          	bne	a3,a4,80001f06 <__moddi3+0x176>
80001eb6:	40ce0733          	sub	a4,t3,a2
80001eba:	0108d593          	srl	a1,a7,0x10
80001ebe:	02b75633          	divu	a2,a4,a1
80001ec2:	01089513          	sll	a0,a7,0x10
80001ec6:	8141                	srl	a0,a0,0x10
80001ec8:	0107d693          	srl	a3,a5,0x10
80001ecc:	02b77733          	remu	a4,a4,a1
80001ed0:	02a60633          	mul	a2,a2,a0
80001ed4:	0742                	sll	a4,a4,0x10
80001ed6:	8f55                	or	a4,a4,a3
80001ed8:	00c77863          	bgeu	a4,a2,80001ee8 <__moddi3+0x158>
80001edc:	9746                	add	a4,a4,a7
80001ede:	01176563          	bltu	a4,a7,80001ee8 <__moddi3+0x158>
80001ee2:	00c77363          	bgeu	a4,a2,80001ee8 <__moddi3+0x158>
80001ee6:	9746                	add	a4,a4,a7
80001ee8:	8f11                	sub	a4,a4,a2
80001eea:	02b756b3          	divu	a3,a4,a1
80001eee:	02b77733          	remu	a4,a4,a1
80001ef2:	02a686b3          	mul	a3,a3,a0
80001ef6:	bf89                	j	80001e48 <__moddi3+0xb8>
80001ef8:	010005b7          	lui	a1,0x1000
80001efc:	46e1                	li	a3,24
80001efe:	fab670e3          	bgeu	a2,a1,80001e9e <__moddi3+0x10e>
80001f02:	46c1                	li	a3,16
80001f04:	bf69                	j	80001e9e <__moddi3+0x10e>
80001f06:	006618b3          	sll	a7,a2,t1
80001f0a:	00ee56b3          	srl	a3,t3,a4
80001f0e:	006517b3          	sll	a5,a0,t1
80001f12:	00e55733          	srl	a4,a0,a4
80001f16:	0108d513          	srl	a0,a7,0x10
80001f1a:	02a6d5b3          	divu	a1,a3,a0
80001f1e:	006e1e33          	sll	t3,t3,t1
80001f22:	01c76733          	or	a4,a4,t3
80001f26:	01089e13          	sll	t3,a7,0x10
80001f2a:	010e5e13          	srl	t3,t3,0x10
80001f2e:	02a6f6b3          	remu	a3,a3,a0
80001f32:	03c585b3          	mul	a1,a1,t3
80001f36:	01069613          	sll	a2,a3,0x10
80001f3a:	01075693          	srl	a3,a4,0x10
80001f3e:	8ed1                	or	a3,a3,a2
80001f40:	00b6f863          	bgeu	a3,a1,80001f50 <__moddi3+0x1c0>
80001f44:	96c6                	add	a3,a3,a7
80001f46:	0116e563          	bltu	a3,a7,80001f50 <__moddi3+0x1c0>
80001f4a:	00b6f363          	bgeu	a3,a1,80001f50 <__moddi3+0x1c0>
80001f4e:	96c6                	add	a3,a3,a7
80001f50:	8e8d                	sub	a3,a3,a1
80001f52:	02a6d633          	divu	a2,a3,a0
80001f56:	0742                	sll	a4,a4,0x10
80001f58:	8341                	srl	a4,a4,0x10
80001f5a:	02a6f6b3          	remu	a3,a3,a0
80001f5e:	03c60633          	mul	a2,a2,t3
80001f62:	06c2                	sll	a3,a3,0x10
80001f64:	8f55                	or	a4,a4,a3
80001f66:	00c77863          	bgeu	a4,a2,80001f76 <__moddi3+0x1e6>
80001f6a:	9746                	add	a4,a4,a7
80001f6c:	01176563          	bltu	a4,a7,80001f76 <__moddi3+0x1e6>
80001f70:	00c77363          	bgeu	a4,a2,80001f76 <__moddi3+0x1e6>
80001f74:	9746                	add	a4,a4,a7
80001f76:	8f11                	sub	a4,a4,a2
80001f78:	b789                	j	80001eba <__moddi3+0x12a>
80001f7a:	eede67e3          	bltu	t3,a3,80001e68 <__moddi3+0xd8>
80001f7e:	6741                	lui	a4,0x10
80001f80:	04e6f663          	bgeu	a3,a4,80001fcc <__moddi3+0x23c>
80001f84:	1006b713          	sltiu	a4,a3,256
80001f88:	00173713          	seqz	a4,a4
80001f8c:	070e                	sll	a4,a4,0x3
80001f8e:	800048b7          	lui	a7,0x80004
80001f92:	00e6d333          	srl	t1,a3,a4
80001f96:	2f888893          	add	a7,a7,760 # 800042f8 <__clz_tab>
80001f9a:	989a                	add	a7,a7,t1
80001f9c:	0008c883          	lbu	a7,0(a7)
80001fa0:	02000313          	li	t1,32
80001fa4:	98ba                	add	a7,a7,a4
80001fa6:	41130733          	sub	a4,t1,a7
80001faa:	03131863          	bne	t1,a7,80001fda <__moddi3+0x24a>
80001fae:	01c6e463          	bltu	a3,t3,80001fb6 <__moddi3+0x226>
80001fb2:	00c56b63          	bltu	a0,a2,80001fc8 <__moddi3+0x238>
80001fb6:	40c50633          	sub	a2,a0,a2
80001fba:	40de06b3          	sub	a3,t3,a3
80001fbe:	00c535b3          	sltu	a1,a0,a2
80001fc2:	87b2                	mv	a5,a2
80001fc4:	40b685b3          	sub	a1,a3,a1
80001fc8:	853e                	mv	a0,a5
80001fca:	bd79                	j	80001e68 <__moddi3+0xd8>
80001fcc:	010008b7          	lui	a7,0x1000
80001fd0:	4761                	li	a4,24
80001fd2:	fb16fee3          	bgeu	a3,a7,80001f8e <__moddi3+0x1fe>
80001fd6:	4741                	li	a4,16
80001fd8:	bf5d                	j	80001f8e <__moddi3+0x1fe>
80001fda:	00e696b3          	sll	a3,a3,a4
80001fde:	01165333          	srl	t1,a2,a7
80001fe2:	00d36333          	or	t1,t1,a3
80001fe6:	011e57b3          	srl	a5,t3,a7
80001fea:	01035e93          	srl	t4,t1,0x10
80001fee:	03d7dfb3          	divu	t6,a5,t4
80001ff2:	00ee1e33          	sll	t3,t3,a4
80001ff6:	011555b3          	srl	a1,a0,a7
80001ffa:	01c5e5b3          	or	a1,a1,t3
80001ffe:	01031e13          	sll	t3,t1,0x10
80002002:	010e5e13          	srl	t3,t3,0x10
80002006:	00e61633          	sll	a2,a2,a4
8000200a:	00e51533          	sll	a0,a0,a4
8000200e:	03d7f7b3          	remu	a5,a5,t4
80002012:	03fe0f33          	mul	t5,t3,t6
80002016:	01079693          	sll	a3,a5,0x10
8000201a:	0105d793          	srl	a5,a1,0x10
8000201e:	8fd5                	or	a5,a5,a3
80002020:	86fe                	mv	a3,t6
80002022:	01e7fc63          	bgeu	a5,t5,8000203a <__moddi3+0x2aa>
80002026:	979a                	add	a5,a5,t1
80002028:	ffff8693          	add	a3,t6,-1
8000202c:	0067e763          	bltu	a5,t1,8000203a <__moddi3+0x2aa>
80002030:	01e7f563          	bgeu	a5,t5,8000203a <__moddi3+0x2aa>
80002034:	ffef8693          	add	a3,t6,-2
80002038:	979a                	add	a5,a5,t1
8000203a:	41e787b3          	sub	a5,a5,t5
8000203e:	03d7df33          	divu	t5,a5,t4
80002042:	05c2                	sll	a1,a1,0x10
80002044:	81c1                	srl	a1,a1,0x10
80002046:	03d7f7b3          	remu	a5,a5,t4
8000204a:	03ee0e33          	mul	t3,t3,t5
8000204e:	07c2                	sll	a5,a5,0x10
80002050:	8ddd                	or	a1,a1,a5
80002052:	87fa                	mv	a5,t5
80002054:	01c5fc63          	bgeu	a1,t3,8000206c <__moddi3+0x2dc>
80002058:	959a                	add	a1,a1,t1
8000205a:	ffff0793          	add	a5,t5,-1
8000205e:	0065e763          	bltu	a1,t1,8000206c <__moddi3+0x2dc>
80002062:	01c5f563          	bgeu	a1,t3,8000206c <__moddi3+0x2dc>
80002066:	ffef0793          	add	a5,t5,-2
8000206a:	959a                	add	a1,a1,t1
8000206c:	06c2                	sll	a3,a3,0x10
8000206e:	6fc1                	lui	t6,0x10
80002070:	8edd                	or	a3,a3,a5
80002072:	41c585b3          	sub	a1,a1,t3
80002076:	ffff8e13          	add	t3,t6,-1 # ffff <_tbss_end+0xffbb>
8000207a:	01c6f7b3          	and	a5,a3,t3
8000207e:	01065e93          	srl	t4,a2,0x10
80002082:	82c1                	srl	a3,a3,0x10
80002084:	01c67e33          	and	t3,a2,t3
80002088:	03c78f33          	mul	t5,a5,t3
8000208c:	03c68e33          	mul	t3,a3,t3
80002090:	03d787b3          	mul	a5,a5,t4
80002094:	03d686b3          	mul	a3,a3,t4
80002098:	01c78eb3          	add	t4,a5,t3
8000209c:	010f5793          	srl	a5,t5,0x10
800020a0:	97f6                	add	a5,a5,t4
800020a2:	01c7f363          	bgeu	a5,t3,800020a8 <__moddi3+0x318>
800020a6:	96fe                	add	a3,a3,t6
800020a8:	0107de13          	srl	t3,a5,0x10
800020ac:	96f2                	add	a3,a3,t3
800020ae:	6e41                	lui	t3,0x10
800020b0:	1e7d                	add	t3,t3,-1 # ffff <_tbss_end+0xffbb>
800020b2:	01c7f7b3          	and	a5,a5,t3
800020b6:	07c2                	sll	a5,a5,0x10
800020b8:	01cf7f33          	and	t5,t5,t3
800020bc:	97fa                	add	a5,a5,t5
800020be:	00d5e663          	bltu	a1,a3,800020ca <__moddi3+0x33a>
800020c2:	00d59c63          	bne	a1,a3,800020da <__moddi3+0x34a>
800020c6:	00f57a63          	bgeu	a0,a5,800020da <__moddi3+0x34a>
800020ca:	40c78633          	sub	a2,a5,a2
800020ce:	00c7be33          	sltu	t3,a5,a2
800020d2:	87b2                	mv	a5,a2
800020d4:	006e0633          	add	a2,t3,t1
800020d8:	8e91                	sub	a3,a3,a2
800020da:	40f507b3          	sub	a5,a0,a5
800020de:	00f53533          	sltu	a0,a0,a5
800020e2:	8d95                	sub	a1,a1,a3
800020e4:	8d89                	sub	a1,a1,a0
800020e6:	011598b3          	sll	a7,a1,a7
800020ea:	00e7d7b3          	srl	a5,a5,a4
800020ee:	00f8e533          	or	a0,a7,a5
800020f2:	00e5d5b3          	srl	a1,a1,a4
800020f6:	bb8d                	j	80001e68 <__moddi3+0xd8>

800020f8 <__udivdi3>:
800020f8:	88aa                	mv	a7,a0
800020fa:	832e                	mv	t1,a1
800020fc:	8732                	mv	a4,a2
800020fe:	882a                	mv	a6,a0
80002100:	87ae                	mv	a5,a1
80002102:	20069663          	bnez	a3,8000230e <__udivdi3+0x216>
80002106:	800045b7          	lui	a1,0x80004
8000210a:	2f858593          	add	a1,a1,760 # 800042f8 <__clz_tab>
8000210e:	0cc37163          	bgeu	t1,a2,800021d0 <__udivdi3+0xd8>
80002112:	66c1                	lui	a3,0x10
80002114:	0ad67763          	bgeu	a2,a3,800021c2 <__udivdi3+0xca>
80002118:	10063693          	sltiu	a3,a2,256
8000211c:	0016b693          	seqz	a3,a3
80002120:	068e                	sll	a3,a3,0x3
80002122:	00d65533          	srl	a0,a2,a3
80002126:	95aa                	add	a1,a1,a0
80002128:	0005c583          	lbu	a1,0(a1)
8000212c:	02000513          	li	a0,32
80002130:	96ae                	add	a3,a3,a1
80002132:	40d505b3          	sub	a1,a0,a3
80002136:	00d50b63          	beq	a0,a3,8000214c <__udivdi3+0x54>
8000213a:	00b317b3          	sll	a5,t1,a1
8000213e:	00d8d6b3          	srl	a3,a7,a3
80002142:	00b61733          	sll	a4,a2,a1
80002146:	8fd5                	or	a5,a5,a3
80002148:	00b89833          	sll	a6,a7,a1
8000214c:	01075593          	srl	a1,a4,0x10
80002150:	02b7d333          	divu	t1,a5,a1
80002154:	01071613          	sll	a2,a4,0x10
80002158:	8241                	srl	a2,a2,0x10
8000215a:	02b7f7b3          	remu	a5,a5,a1
8000215e:	851a                	mv	a0,t1
80002160:	026608b3          	mul	a7,a2,t1
80002164:	01079693          	sll	a3,a5,0x10
80002168:	01085793          	srl	a5,a6,0x10
8000216c:	8fd5                	or	a5,a5,a3
8000216e:	0117fc63          	bgeu	a5,a7,80002186 <__udivdi3+0x8e>
80002172:	97ba                	add	a5,a5,a4
80002174:	fff30513          	add	a0,t1,-1 # ffffff <_tbss_end+0xffffbb>
80002178:	00e7e763          	bltu	a5,a4,80002186 <__udivdi3+0x8e>
8000217c:	0117f563          	bgeu	a5,a7,80002186 <__udivdi3+0x8e>
80002180:	ffe30513          	add	a0,t1,-2
80002184:	97ba                	add	a5,a5,a4
80002186:	411787b3          	sub	a5,a5,a7
8000218a:	02b7d8b3          	divu	a7,a5,a1
8000218e:	0842                	sll	a6,a6,0x10
80002190:	01085813          	srl	a6,a6,0x10
80002194:	02b7f7b3          	remu	a5,a5,a1
80002198:	031606b3          	mul	a3,a2,a7
8000219c:	07c2                	sll	a5,a5,0x10
8000219e:	00f86833          	or	a6,a6,a5
800021a2:	87c6                	mv	a5,a7
800021a4:	00d87b63          	bgeu	a6,a3,800021ba <__udivdi3+0xc2>
800021a8:	983a                	add	a6,a6,a4
800021aa:	fff88793          	add	a5,a7,-1 # ffffff <_tbss_end+0xffffbb>
800021ae:	00e86663          	bltu	a6,a4,800021ba <__udivdi3+0xc2>
800021b2:	00d87463          	bgeu	a6,a3,800021ba <__udivdi3+0xc2>
800021b6:	ffe88793          	add	a5,a7,-2
800021ba:	0542                	sll	a0,a0,0x10
800021bc:	8d5d                	or	a0,a0,a5
800021be:	4581                	li	a1,0
800021c0:	8082                	ret
800021c2:	01000537          	lui	a0,0x1000
800021c6:	46e1                	li	a3,24
800021c8:	f4a67de3          	bgeu	a2,a0,80002122 <__udivdi3+0x2a>
800021cc:	46c1                	li	a3,16
800021ce:	bf91                	j	80002122 <__udivdi3+0x2a>
800021d0:	4681                	li	a3,0
800021d2:	ca09                	beqz	a2,800021e4 <__udivdi3+0xec>
800021d4:	67c1                	lui	a5,0x10
800021d6:	08f67f63          	bgeu	a2,a5,80002274 <__udivdi3+0x17c>
800021da:	10063693          	sltiu	a3,a2,256
800021de:	0016b693          	seqz	a3,a3
800021e2:	068e                	sll	a3,a3,0x3
800021e4:	00d657b3          	srl	a5,a2,a3
800021e8:	95be                	add	a1,a1,a5
800021ea:	0005c783          	lbu	a5,0(a1)
800021ee:	97b6                	add	a5,a5,a3
800021f0:	02000693          	li	a3,32
800021f4:	40f685b3          	sub	a1,a3,a5
800021f8:	08f69563          	bne	a3,a5,80002282 <__udivdi3+0x18a>
800021fc:	40c307b3          	sub	a5,t1,a2
80002200:	4585                	li	a1,1
80002202:	01075893          	srl	a7,a4,0x10
80002206:	0317de33          	divu	t3,a5,a7
8000220a:	01071613          	sll	a2,a4,0x10
8000220e:	8241                	srl	a2,a2,0x10
80002210:	01085693          	srl	a3,a6,0x10
80002214:	0317f7b3          	remu	a5,a5,a7
80002218:	8572                	mv	a0,t3
8000221a:	03c60333          	mul	t1,a2,t3
8000221e:	07c2                	sll	a5,a5,0x10
80002220:	8fd5                	or	a5,a5,a3
80002222:	0067fc63          	bgeu	a5,t1,8000223a <__udivdi3+0x142>
80002226:	97ba                	add	a5,a5,a4
80002228:	fffe0513          	add	a0,t3,-1
8000222c:	00e7e763          	bltu	a5,a4,8000223a <__udivdi3+0x142>
80002230:	0067f563          	bgeu	a5,t1,8000223a <__udivdi3+0x142>
80002234:	ffee0513          	add	a0,t3,-2
80002238:	97ba                	add	a5,a5,a4
8000223a:	406787b3          	sub	a5,a5,t1
8000223e:	0317d333          	divu	t1,a5,a7
80002242:	0842                	sll	a6,a6,0x10
80002244:	01085813          	srl	a6,a6,0x10
80002248:	0317f7b3          	remu	a5,a5,a7
8000224c:	026606b3          	mul	a3,a2,t1
80002250:	07c2                	sll	a5,a5,0x10
80002252:	00f86833          	or	a6,a6,a5
80002256:	879a                	mv	a5,t1
80002258:	00d87b63          	bgeu	a6,a3,8000226e <__udivdi3+0x176>
8000225c:	983a                	add	a6,a6,a4
8000225e:	fff30793          	add	a5,t1,-1
80002262:	00e86663          	bltu	a6,a4,8000226e <__udivdi3+0x176>
80002266:	00d87463          	bgeu	a6,a3,8000226e <__udivdi3+0x176>
8000226a:	ffe30793          	add	a5,t1,-2
8000226e:	0542                	sll	a0,a0,0x10
80002270:	8d5d                	or	a0,a0,a5
80002272:	8082                	ret
80002274:	010007b7          	lui	a5,0x1000
80002278:	46e1                	li	a3,24
8000227a:	f6f675e3          	bgeu	a2,a5,800021e4 <__udivdi3+0xec>
8000227e:	46c1                	li	a3,16
80002280:	b795                	j	800021e4 <__udivdi3+0xec>
80002282:	00b61733          	sll	a4,a2,a1
80002286:	00f356b3          	srl	a3,t1,a5
8000228a:	01075513          	srl	a0,a4,0x10
8000228e:	00b31333          	sll	t1,t1,a1
80002292:	00f8d7b3          	srl	a5,a7,a5
80002296:	0067e7b3          	or	a5,a5,t1
8000229a:	02a6d333          	divu	t1,a3,a0
8000229e:	01071613          	sll	a2,a4,0x10
800022a2:	8241                	srl	a2,a2,0x10
800022a4:	00b89833          	sll	a6,a7,a1
800022a8:	02a6f6b3          	remu	a3,a3,a0
800022ac:	026608b3          	mul	a7,a2,t1
800022b0:	01069593          	sll	a1,a3,0x10
800022b4:	0107d693          	srl	a3,a5,0x10
800022b8:	8ecd                	or	a3,a3,a1
800022ba:	859a                	mv	a1,t1
800022bc:	0116fc63          	bgeu	a3,a7,800022d4 <__udivdi3+0x1dc>
800022c0:	96ba                	add	a3,a3,a4
800022c2:	fff30593          	add	a1,t1,-1
800022c6:	00e6e763          	bltu	a3,a4,800022d4 <__udivdi3+0x1dc>
800022ca:	0116f563          	bgeu	a3,a7,800022d4 <__udivdi3+0x1dc>
800022ce:	ffe30593          	add	a1,t1,-2
800022d2:	96ba                	add	a3,a3,a4
800022d4:	411686b3          	sub	a3,a3,a7
800022d8:	02a6d8b3          	divu	a7,a3,a0
800022dc:	07c2                	sll	a5,a5,0x10
800022de:	83c1                	srl	a5,a5,0x10
800022e0:	02a6f6b3          	remu	a3,a3,a0
800022e4:	03160633          	mul	a2,a2,a7
800022e8:	06c2                	sll	a3,a3,0x10
800022ea:	8fd5                	or	a5,a5,a3
800022ec:	86c6                	mv	a3,a7
800022ee:	00c7fc63          	bgeu	a5,a2,80002306 <__udivdi3+0x20e>
800022f2:	97ba                	add	a5,a5,a4
800022f4:	fff88693          	add	a3,a7,-1
800022f8:	00e7e763          	bltu	a5,a4,80002306 <__udivdi3+0x20e>
800022fc:	00c7f563          	bgeu	a5,a2,80002306 <__udivdi3+0x20e>
80002300:	ffe88693          	add	a3,a7,-2
80002304:	97ba                	add	a5,a5,a4
80002306:	05c2                	sll	a1,a1,0x10
80002308:	8f91                	sub	a5,a5,a2
8000230a:	8dd5                	or	a1,a1,a3
8000230c:	bddd                	j	80002202 <__udivdi3+0x10a>
8000230e:	14d5e163          	bltu	a1,a3,80002450 <__udivdi3+0x358>
80002312:	67c1                	lui	a5,0x10
80002314:	02f6ff63          	bgeu	a3,a5,80002352 <__udivdi3+0x25a>
80002318:	1006b713          	sltiu	a4,a3,256
8000231c:	00173713          	seqz	a4,a4
80002320:	070e                	sll	a4,a4,0x3
80002322:	800047b7          	lui	a5,0x80004
80002326:	00e6d5b3          	srl	a1,a3,a4
8000232a:	2f878793          	add	a5,a5,760 # 800042f8 <__clz_tab>
8000232e:	97ae                	add	a5,a5,a1
80002330:	0007c783          	lbu	a5,0(a5)
80002334:	97ba                	add	a5,a5,a4
80002336:	02000713          	li	a4,32
8000233a:	40f705b3          	sub	a1,a4,a5
8000233e:	02f71163          	bne	a4,a5,80002360 <__udivdi3+0x268>
80002342:	4505                	li	a0,1
80002344:	e666eee3          	bltu	a3,t1,800021c0 <__udivdi3+0xc8>
80002348:	00c8b533          	sltu	a0,a7,a2
8000234c:	00153513          	seqz	a0,a0
80002350:	8082                	ret
80002352:	010007b7          	lui	a5,0x1000
80002356:	4761                	li	a4,24
80002358:	fcf6f5e3          	bgeu	a3,a5,80002322 <__udivdi3+0x22a>
8000235c:	4741                	li	a4,16
8000235e:	b7d1                	j	80002322 <__udivdi3+0x22a>
80002360:	00f65733          	srl	a4,a2,a5
80002364:	00b696b3          	sll	a3,a3,a1
80002368:	8ed9                	or	a3,a3,a4
8000236a:	00f35733          	srl	a4,t1,a5
8000236e:	00b31333          	sll	t1,t1,a1
80002372:	00f8d7b3          	srl	a5,a7,a5
80002376:	0067e7b3          	or	a5,a5,t1
8000237a:	0106d313          	srl	t1,a3,0x10
8000237e:	02675eb3          	divu	t4,a4,t1
80002382:	01069813          	sll	a6,a3,0x10
80002386:	01085813          	srl	a6,a6,0x10
8000238a:	00b61633          	sll	a2,a2,a1
8000238e:	02677733          	remu	a4,a4,t1
80002392:	03d80e33          	mul	t3,a6,t4
80002396:	01071513          	sll	a0,a4,0x10
8000239a:	0107d713          	srl	a4,a5,0x10
8000239e:	8f49                	or	a4,a4,a0
800023a0:	8576                	mv	a0,t4
800023a2:	01c77c63          	bgeu	a4,t3,800023ba <__udivdi3+0x2c2>
800023a6:	9736                	add	a4,a4,a3
800023a8:	fffe8513          	add	a0,t4,-1
800023ac:	00d76763          	bltu	a4,a3,800023ba <__udivdi3+0x2c2>
800023b0:	01c77563          	bgeu	a4,t3,800023ba <__udivdi3+0x2c2>
800023b4:	ffee8513          	add	a0,t4,-2
800023b8:	9736                	add	a4,a4,a3
800023ba:	41c70733          	sub	a4,a4,t3
800023be:	02675e33          	divu	t3,a4,t1
800023c2:	07c2                	sll	a5,a5,0x10
800023c4:	83c1                	srl	a5,a5,0x10
800023c6:	02677733          	remu	a4,a4,t1
800023ca:	03c80833          	mul	a6,a6,t3
800023ce:	0742                	sll	a4,a4,0x10
800023d0:	8fd9                	or	a5,a5,a4
800023d2:	8772                	mv	a4,t3
800023d4:	0107fc63          	bgeu	a5,a6,800023ec <__udivdi3+0x2f4>
800023d8:	97b6                	add	a5,a5,a3
800023da:	fffe0713          	add	a4,t3,-1
800023de:	00d7e763          	bltu	a5,a3,800023ec <__udivdi3+0x2f4>
800023e2:	0107f563          	bgeu	a5,a6,800023ec <__udivdi3+0x2f4>
800023e6:	ffee0713          	add	a4,t3,-2
800023ea:	97b6                	add	a5,a5,a3
800023ec:	0542                	sll	a0,a0,0x10
800023ee:	6e41                	lui	t3,0x10
800023f0:	8d59                	or	a0,a0,a4
800023f2:	fffe0693          	add	a3,t3,-1 # ffff <_tbss_end+0xffbb>
800023f6:	00d57733          	and	a4,a0,a3
800023fa:	410787b3          	sub	a5,a5,a6
800023fe:	8ef1                	and	a3,a3,a2
80002400:	01055813          	srl	a6,a0,0x10
80002404:	8241                	srl	a2,a2,0x10
80002406:	02d70333          	mul	t1,a4,a3
8000240a:	02d806b3          	mul	a3,a6,a3
8000240e:	02c70733          	mul	a4,a4,a2
80002412:	02c80833          	mul	a6,a6,a2
80002416:	00d70633          	add	a2,a4,a3
8000241a:	01035713          	srl	a4,t1,0x10
8000241e:	9732                	add	a4,a4,a2
80002420:	00d77363          	bgeu	a4,a3,80002426 <__udivdi3+0x32e>
80002424:	9872                	add	a6,a6,t3
80002426:	01075693          	srl	a3,a4,0x10
8000242a:	96c2                	add	a3,a3,a6
8000242c:	02d7e063          	bltu	a5,a3,8000244c <__udivdi3+0x354>
80002430:	d8d797e3          	bne	a5,a3,800021be <__udivdi3+0xc6>
80002434:	67c1                	lui	a5,0x10
80002436:	17fd                	add	a5,a5,-1 # ffff <_tbss_end+0xffbb>
80002438:	8f7d                	and	a4,a4,a5
8000243a:	0742                	sll	a4,a4,0x10
8000243c:	00f37333          	and	t1,t1,a5
80002440:	00b898b3          	sll	a7,a7,a1
80002444:	971a                	add	a4,a4,t1
80002446:	4581                	li	a1,0
80002448:	d6e8fce3          	bgeu	a7,a4,800021c0 <__udivdi3+0xc8>
8000244c:	157d                	add	a0,a0,-1 # ffffff <_tbss_end+0xffffbb>
8000244e:	bb85                	j	800021be <__udivdi3+0xc6>
80002450:	4581                	li	a1,0
80002452:	4501                	li	a0,0
80002454:	8082                	ret

80002456 <__umoddi3>:
80002456:	8832                	mv	a6,a2
80002458:	87aa                	mv	a5,a0
8000245a:	872e                	mv	a4,a1
8000245c:	1a069363          	bnez	a3,80002602 <__umoddi3+0x1ac>
80002460:	800048b7          	lui	a7,0x80004
80002464:	2f888893          	add	a7,a7,760 # 800042f8 <__clz_tab>
80002468:	0ac5f663          	bgeu	a1,a2,80002514 <__umoddi3+0xbe>
8000246c:	66c1                	lui	a3,0x10
8000246e:	08d67c63          	bgeu	a2,a3,80002506 <__umoddi3+0xb0>
80002472:	10063693          	sltiu	a3,a2,256
80002476:	0016b693          	seqz	a3,a3
8000247a:	068e                	sll	a3,a3,0x3
8000247c:	00d65333          	srl	t1,a2,a3
80002480:	989a                	add	a7,a7,t1
80002482:	0008c883          	lbu	a7,0(a7)
80002486:	02000313          	li	t1,32
8000248a:	96c6                	add	a3,a3,a7
8000248c:	40d308b3          	sub	a7,t1,a3
80002490:	00d30b63          	beq	t1,a3,800024a6 <__umoddi3+0x50>
80002494:	01159733          	sll	a4,a1,a7
80002498:	00d556b3          	srl	a3,a0,a3
8000249c:	01161833          	sll	a6,a2,a7
800024a0:	8f55                	or	a4,a4,a3
800024a2:	011517b3          	sll	a5,a0,a7
800024a6:	01085613          	srl	a2,a6,0x10
800024aa:	02c756b3          	divu	a3,a4,a2
800024ae:	01081513          	sll	a0,a6,0x10
800024b2:	8141                	srl	a0,a0,0x10
800024b4:	02c77733          	remu	a4,a4,a2
800024b8:	02a686b3          	mul	a3,a3,a0
800024bc:	01071593          	sll	a1,a4,0x10
800024c0:	0107d713          	srl	a4,a5,0x10
800024c4:	8f4d                	or	a4,a4,a1
800024c6:	00d77863          	bgeu	a4,a3,800024d6 <__umoddi3+0x80>
800024ca:	9742                	add	a4,a4,a6
800024cc:	01076563          	bltu	a4,a6,800024d6 <__umoddi3+0x80>
800024d0:	00d77363          	bgeu	a4,a3,800024d6 <__umoddi3+0x80>
800024d4:	9742                	add	a4,a4,a6
800024d6:	8f15                	sub	a4,a4,a3
800024d8:	02c756b3          	divu	a3,a4,a2
800024dc:	02c77733          	remu	a4,a4,a2
800024e0:	02a686b3          	mul	a3,a3,a0
800024e4:	07c2                	sll	a5,a5,0x10
800024e6:	0742                	sll	a4,a4,0x10
800024e8:	83c1                	srl	a5,a5,0x10
800024ea:	8fd9                	or	a5,a5,a4
800024ec:	00d7f863          	bgeu	a5,a3,800024fc <__umoddi3+0xa6>
800024f0:	97c2                	add	a5,a5,a6
800024f2:	0107e563          	bltu	a5,a6,800024fc <__umoddi3+0xa6>
800024f6:	00d7f363          	bgeu	a5,a3,800024fc <__umoddi3+0xa6>
800024fa:	97c2                	add	a5,a5,a6
800024fc:	8f95                	sub	a5,a5,a3
800024fe:	0117d533          	srl	a0,a5,a7
80002502:	4581                	li	a1,0
80002504:	8082                	ret
80002506:	01000337          	lui	t1,0x1000
8000250a:	46e1                	li	a3,24
8000250c:	f66678e3          	bgeu	a2,t1,8000247c <__umoddi3+0x26>
80002510:	46c1                	li	a3,16
80002512:	b7ad                	j	8000247c <__umoddi3+0x26>
80002514:	4681                	li	a3,0
80002516:	ca09                	beqz	a2,80002528 <__umoddi3+0xd2>
80002518:	6741                	lui	a4,0x10
8000251a:	06e67463          	bgeu	a2,a4,80002582 <__umoddi3+0x12c>
8000251e:	10063693          	sltiu	a3,a2,256
80002522:	0016b693          	seqz	a3,a3
80002526:	068e                	sll	a3,a3,0x3
80002528:	00d65733          	srl	a4,a2,a3
8000252c:	98ba                	add	a7,a7,a4
8000252e:	0008c703          	lbu	a4,0(a7)
80002532:	9736                	add	a4,a4,a3
80002534:	02000693          	li	a3,32
80002538:	40e688b3          	sub	a7,a3,a4
8000253c:	04e69a63          	bne	a3,a4,80002590 <__umoddi3+0x13a>
80002540:	40c58733          	sub	a4,a1,a2
80002544:	01085593          	srl	a1,a6,0x10
80002548:	02b75633          	divu	a2,a4,a1
8000254c:	01081513          	sll	a0,a6,0x10
80002550:	8141                	srl	a0,a0,0x10
80002552:	0107d693          	srl	a3,a5,0x10
80002556:	02b77733          	remu	a4,a4,a1
8000255a:	02a60633          	mul	a2,a2,a0
8000255e:	0742                	sll	a4,a4,0x10
80002560:	8f55                	or	a4,a4,a3
80002562:	00c77863          	bgeu	a4,a2,80002572 <__umoddi3+0x11c>
80002566:	9742                	add	a4,a4,a6
80002568:	01076563          	bltu	a4,a6,80002572 <__umoddi3+0x11c>
8000256c:	00c77363          	bgeu	a4,a2,80002572 <__umoddi3+0x11c>
80002570:	9742                	add	a4,a4,a6
80002572:	8f11                	sub	a4,a4,a2
80002574:	02b756b3          	divu	a3,a4,a1
80002578:	02b77733          	remu	a4,a4,a1
8000257c:	02a686b3          	mul	a3,a3,a0
80002580:	b795                	j	800024e4 <__umoddi3+0x8e>
80002582:	01000737          	lui	a4,0x1000
80002586:	46e1                	li	a3,24
80002588:	fae670e3          	bgeu	a2,a4,80002528 <__umoddi3+0xd2>
8000258c:	46c1                	li	a3,16
8000258e:	bf69                	j	80002528 <__umoddi3+0xd2>
80002590:	01161833          	sll	a6,a2,a7
80002594:	00e5d6b3          	srl	a3,a1,a4
80002598:	011517b3          	sll	a5,a0,a7
8000259c:	011595b3          	sll	a1,a1,a7
800025a0:	00e55733          	srl	a4,a0,a4
800025a4:	01085513          	srl	a0,a6,0x10
800025a8:	8f4d                	or	a4,a4,a1
800025aa:	02a6d5b3          	divu	a1,a3,a0
800025ae:	01081313          	sll	t1,a6,0x10
800025b2:	01035313          	srl	t1,t1,0x10
800025b6:	02a6f6b3          	remu	a3,a3,a0
800025ba:	026585b3          	mul	a1,a1,t1
800025be:	01069613          	sll	a2,a3,0x10
800025c2:	01075693          	srl	a3,a4,0x10
800025c6:	8ed1                	or	a3,a3,a2
800025c8:	00b6f863          	bgeu	a3,a1,800025d8 <__umoddi3+0x182>
800025cc:	96c2                	add	a3,a3,a6
800025ce:	0106e563          	bltu	a3,a6,800025d8 <__umoddi3+0x182>
800025d2:	00b6f363          	bgeu	a3,a1,800025d8 <__umoddi3+0x182>
800025d6:	96c2                	add	a3,a3,a6
800025d8:	8e8d                	sub	a3,a3,a1
800025da:	02a6d633          	divu	a2,a3,a0
800025de:	0742                	sll	a4,a4,0x10
800025e0:	8341                	srl	a4,a4,0x10
800025e2:	02a6f6b3          	remu	a3,a3,a0
800025e6:	02660633          	mul	a2,a2,t1
800025ea:	06c2                	sll	a3,a3,0x10
800025ec:	8f55                	or	a4,a4,a3
800025ee:	00c77863          	bgeu	a4,a2,800025fe <__umoddi3+0x1a8>
800025f2:	9742                	add	a4,a4,a6
800025f4:	01076563          	bltu	a4,a6,800025fe <__umoddi3+0x1a8>
800025f8:	00c77363          	bgeu	a4,a2,800025fe <__umoddi3+0x1a8>
800025fc:	9742                	add	a4,a4,a6
800025fe:	8f11                	sub	a4,a4,a2
80002600:	b791                	j	80002544 <__umoddi3+0xee>
80002602:	16d5ed63          	bltu	a1,a3,8000277c <__umoddi3+0x326>
80002606:	6841                	lui	a6,0x10
80002608:	0506f763          	bgeu	a3,a6,80002656 <__umoddi3+0x200>
8000260c:	1006b813          	sltiu	a6,a3,256
80002610:	00183813          	seqz	a6,a6
80002614:	080e                	sll	a6,a6,0x3
80002616:	800048b7          	lui	a7,0x80004
8000261a:	0106d333          	srl	t1,a3,a6
8000261e:	2f888893          	add	a7,a7,760 # 800042f8 <__clz_tab>
80002622:	989a                	add	a7,a7,t1
80002624:	0008c883          	lbu	a7,0(a7)
80002628:	02000313          	li	t1,32
8000262c:	98c2                	add	a7,a7,a6
8000262e:	41130833          	sub	a6,t1,a7
80002632:	03131963          	bne	t1,a7,80002664 <__umoddi3+0x20e>
80002636:	00b6e463          	bltu	a3,a1,8000263e <__umoddi3+0x1e8>
8000263a:	00c56b63          	bltu	a0,a2,80002650 <__umoddi3+0x1fa>
8000263e:	40c50633          	sub	a2,a0,a2
80002642:	40d586b3          	sub	a3,a1,a3
80002646:	00c53733          	sltu	a4,a0,a2
8000264a:	87b2                	mv	a5,a2
8000264c:	40e68733          	sub	a4,a3,a4
80002650:	853e                	mv	a0,a5
80002652:	85ba                	mv	a1,a4
80002654:	8082                	ret
80002656:	010008b7          	lui	a7,0x1000
8000265a:	4861                	li	a6,24
8000265c:	fb16fde3          	bgeu	a3,a7,80002616 <__umoddi3+0x1c0>
80002660:	4841                	li	a6,16
80002662:	bf55                	j	80002616 <__umoddi3+0x1c0>
80002664:	011657b3          	srl	a5,a2,a7
80002668:	010696b3          	sll	a3,a3,a6
8000266c:	8edd                	or	a3,a3,a5
8000266e:	0115d733          	srl	a4,a1,a7
80002672:	0106de13          	srl	t3,a3,0x10
80002676:	03c75f33          	divu	t5,a4,t3
8000267a:	01069313          	sll	t1,a3,0x10
8000267e:	01035313          	srl	t1,t1,0x10
80002682:	010597b3          	sll	a5,a1,a6
80002686:	011555b3          	srl	a1,a0,a7
8000268a:	8ddd                	or	a1,a1,a5
8000268c:	0105d793          	srl	a5,a1,0x10
80002690:	01061633          	sll	a2,a2,a6
80002694:	01051533          	sll	a0,a0,a6
80002698:	03c77733          	remu	a4,a4,t3
8000269c:	03e30eb3          	mul	t4,t1,t5
800026a0:	0742                	sll	a4,a4,0x10
800026a2:	8fd9                	or	a5,a5,a4
800026a4:	877a                	mv	a4,t5
800026a6:	01d7fc63          	bgeu	a5,t4,800026be <__umoddi3+0x268>
800026aa:	97b6                	add	a5,a5,a3
800026ac:	ffff0713          	add	a4,t5,-1
800026b0:	00d7e763          	bltu	a5,a3,800026be <__umoddi3+0x268>
800026b4:	01d7f563          	bgeu	a5,t4,800026be <__umoddi3+0x268>
800026b8:	ffef0713          	add	a4,t5,-2
800026bc:	97b6                	add	a5,a5,a3
800026be:	41d787b3          	sub	a5,a5,t4
800026c2:	03c7deb3          	divu	t4,a5,t3
800026c6:	05c2                	sll	a1,a1,0x10
800026c8:	81c1                	srl	a1,a1,0x10
800026ca:	03c7f7b3          	remu	a5,a5,t3
800026ce:	8e76                	mv	t3,t4
800026d0:	03d30333          	mul	t1,t1,t4
800026d4:	07c2                	sll	a5,a5,0x10
800026d6:	8ddd                	or	a1,a1,a5
800026d8:	0065fc63          	bgeu	a1,t1,800026f0 <__umoddi3+0x29a>
800026dc:	95b6                	add	a1,a1,a3
800026de:	fffe8e13          	add	t3,t4,-1
800026e2:	00d5e763          	bltu	a1,a3,800026f0 <__umoddi3+0x29a>
800026e6:	0065f563          	bgeu	a1,t1,800026f0 <__umoddi3+0x29a>
800026ea:	ffee8e13          	add	t3,t4,-2
800026ee:	95b6                	add	a1,a1,a3
800026f0:	01071793          	sll	a5,a4,0x10
800026f4:	6f41                	lui	t5,0x10
800026f6:	01c7e7b3          	or	a5,a5,t3
800026fa:	406585b3          	sub	a1,a1,t1
800026fe:	ffff0313          	add	t1,t5,-1 # ffff <_tbss_end+0xffbb>
80002702:	0067f733          	and	a4,a5,t1
80002706:	01065e13          	srl	t3,a2,0x10
8000270a:	83c1                	srl	a5,a5,0x10
8000270c:	00667333          	and	t1,a2,t1
80002710:	02670eb3          	mul	t4,a4,t1
80002714:	02678333          	mul	t1,a5,t1
80002718:	03c70733          	mul	a4,a4,t3
8000271c:	03c787b3          	mul	a5,a5,t3
80002720:	00670e33          	add	t3,a4,t1
80002724:	010ed713          	srl	a4,t4,0x10
80002728:	9772                	add	a4,a4,t3
8000272a:	00677363          	bgeu	a4,t1,80002730 <__umoddi3+0x2da>
8000272e:	97fa                	add	a5,a5,t5
80002730:	01075313          	srl	t1,a4,0x10
80002734:	979a                	add	a5,a5,t1
80002736:	6341                	lui	t1,0x10
80002738:	137d                	add	t1,t1,-1 # ffff <_tbss_end+0xffbb>
8000273a:	00677733          	and	a4,a4,t1
8000273e:	0742                	sll	a4,a4,0x10
80002740:	006efeb3          	and	t4,t4,t1
80002744:	9776                	add	a4,a4,t4
80002746:	00f5e663          	bltu	a1,a5,80002752 <__umoddi3+0x2fc>
8000274a:	00f59b63          	bne	a1,a5,80002760 <__umoddi3+0x30a>
8000274e:	00e57963          	bgeu	a0,a4,80002760 <__umoddi3+0x30a>
80002752:	40c70633          	sub	a2,a4,a2
80002756:	00c73333          	sltu	t1,a4,a2
8000275a:	969a                	add	a3,a3,t1
8000275c:	8732                	mv	a4,a2
8000275e:	8f95                	sub	a5,a5,a3
80002760:	40e50733          	sub	a4,a0,a4
80002764:	00e53533          	sltu	a0,a0,a4
80002768:	8d9d                	sub	a1,a1,a5
8000276a:	8d89                	sub	a1,a1,a0
8000276c:	011598b3          	sll	a7,a1,a7
80002770:	01075733          	srl	a4,a4,a6
80002774:	00e8e533          	or	a0,a7,a4
80002778:	0105d5b3          	srl	a1,a1,a6
8000277c:	8082                	ret

Disassembly of section .text.startup:

8000277e <main>:
8000277e:	715d                	add	sp,sp,-80
80002780:	00002517          	auipc	a0,0x2
80002784:	c8450513          	add	a0,a0,-892 # 80004404 <__clz_tab+0x10c>
80002788:	c686                	sw	ra,76(sp)
8000278a:	c4a2                	sw	s0,72(sp)
8000278c:	c2a6                	sw	s1,68(sp)
8000278e:	c0ca                	sw	s2,64(sp)
80002790:	de4e                	sw	s3,60(sp)
80002792:	dc52                	sw	s4,56(sp)
80002794:	da56                	sw	s5,52(sp)
80002796:	d85a                	sw	s6,48(sp)
80002798:	d65e                	sw	s7,44(sp)
8000279a:	b70ff0ef          	jal	80001b0a <printf>
8000279e:	c0002b73          	rdcycle	s6
800027a2:	0ff0000f          	fence
800027a6:	84c18793          	add	a5,gp,-1972 # 80004580 <input.1>
800027aa:	848a                	mv	s1,sp
800027ac:	0097b05b          	.insn	4, 0x0097b05b
800027b0:	09600793          	li	a5,150
800027b4:	0207a05b          	.insn	4, 0x0207a05b
800027b8:	0ff0000f          	fence
800027bc:	c0002bf3          	rdcycle	s7
800027c0:	00002997          	auipc	s3,0x2
800027c4:	9c098993          	add	s3,s3,-1600 # 80004180 <result.0>
800027c8:	4401                	li	s0,0
800027ca:	00002a17          	auipc	s4,0x2
800027ce:	c52a0a13          	add	s4,s4,-942 # 8000441c <__clz_tab+0x124>
800027d2:	02000a93          	li	s5,32
800027d6:	a021                	j	800027de <main+0x60>
800027d8:	0985                	add	s3,s3,1
800027da:	05540c63          	beq	s0,s5,80002832 <main+0xb4>
800027de:	0009c903          	lbu	s2,0(s3)
800027e2:	0004c603          	lbu	a2,0(s1)
800027e6:	86a2                	mv	a3,s0
800027e8:	85a2                	mv	a1,s0
800027ea:	874a                	mv	a4,s2
800027ec:	8552                	mv	a0,s4
800027ee:	b1cff0ef          	jal	80001b0a <printf>
800027f2:	0004c783          	lbu	a5,0(s1)
800027f6:	0405                	add	s0,s0,1
800027f8:	0485                	add	s1,s1,1
800027fa:	fd278fe3          	beq	a5,s2,800027d8 <main+0x5a>
800027fe:	00002517          	auipc	a0,0x2
80002802:	c4250513          	add	a0,a0,-958 # 80004440 <__clz_tab+0x148>
80002806:	b04ff0ef          	jal	80001b0a <printf>
8000280a:	416b85b3          	sub	a1,s7,s6
8000280e:	00002517          	auipc	a0,0x2
80002812:	c5250513          	add	a0,a0,-942 # 80004460 <__clz_tab+0x168>
80002816:	af4ff0ef          	jal	80001b0a <printf>
8000281a:	4505                	li	a0,1
8000281c:	40b6                	lw	ra,76(sp)
8000281e:	4426                	lw	s0,72(sp)
80002820:	4496                	lw	s1,68(sp)
80002822:	4906                	lw	s2,64(sp)
80002824:	59f2                	lw	s3,60(sp)
80002826:	5a62                	lw	s4,56(sp)
80002828:	5ad2                	lw	s5,52(sp)
8000282a:	5b42                	lw	s6,48(sp)
8000282c:	5bb2                	lw	s7,44(sp)
8000282e:	6161                	add	sp,sp,80
80002830:	8082                	ret
80002832:	00002517          	auipc	a0,0x2
80002836:	c4e50513          	add	a0,a0,-946 # 80004480 <__clz_tab+0x188>
8000283a:	ad0ff0ef          	jal	80001b0a <printf>
8000283e:	416b85b3          	sub	a1,s7,s6
80002842:	00002517          	auipc	a0,0x2
80002846:	c1e50513          	add	a0,a0,-994 # 80004460 <__clz_tab+0x168>
8000284a:	ac0ff0ef          	jal	80001b0a <printf>
8000284e:	4501                	li	a0,0
80002850:	b7f1                	j	8000281c <main+0x9e>
80002852:	1141                	add	sp,sp,-16
80002854:	00002517          	auipc	a0,0x2
80002858:	c5450513          	add	a0,a0,-940 # 800044a8 <__clz_tab+0x1b0>
8000285c:	c606                	sw	ra,12(sp)
8000285e:	9d4ff0ef          	jal	80001a32 <printstr>
80002862:	40b2                	lw	ra,12(sp)
80002864:	557d                	li	a0,-1
80002866:	0141                	add	sp,sp,16
80002868:	8082                	ret
